	.section	__TEXT,__text,regular,pure_instructions
	.macosx_version_min 10, 11
	.globl	_helper
	.align	4, 0x90
_helper:                                ## @helper
	.cfi_startproc
## BB#0:
	pushq	%rbp
Ltmp0:
	.cfi_def_cfa_offset 16
Ltmp1:
	.cfi_offset %rbp, -16
	movq	%rsp, %rbp
Ltmp2:
	.cfi_def_cfa_register %rbp
	subq	$48, %rsp
	movl	$4000, %eax             ## imm = 0xFA0
	movl	%eax, %edi
	movl	$0, -4(%rbp)
	callq	_malloc
	xorl	%esi, %esi
	movl	$1000, %ecx             ## imm = 0x3E8
	movl	%ecx, %edx
	movq	$-1, %rcx
	movq	%rax, -16(%rbp)
	movq	-16(%rbp), %rax
	movq	%rax, %rdi
	callq	___memset_chk
	movq	%rax, -40(%rbp)         ## 8-byte Spill
	callq	_mach_absolute_time
	movq	%rax, -24(%rbp)
	movq	-16(%rbp), %rax
	movl	(%rax), %esi
	addl	-4(%rbp), %esi
	movl	%esi, -4(%rbp)
	movq	-16(%rbp), %rax
	movl	4(%rax), %esi
	addl	-4(%rbp), %esi
	movl	%esi, -4(%rbp)
	movq	-16(%rbp), %rax
	movl	8(%rax), %esi
	addl	-4(%rbp), %esi
	movl	%esi, -4(%rbp)
	movq	-16(%rbp), %rax
	movl	12(%rax), %esi
	addl	-4(%rbp), %esi
	movl	%esi, -4(%rbp)
	movq	-16(%rbp), %rax
	movl	16(%rax), %esi
	addl	-4(%rbp), %esi
	movl	%esi, -4(%rbp)
	movq	-16(%rbp), %rax
	movl	20(%rax), %esi
	addl	-4(%rbp), %esi
	movl	%esi, -4(%rbp)
	movq	-16(%rbp), %rax
	movl	24(%rax), %esi
	addl	-4(%rbp), %esi
	movl	%esi, -4(%rbp)
	movq	-16(%rbp), %rax
	movl	28(%rax), %esi
	addl	-4(%rbp), %esi
	movl	%esi, -4(%rbp)
	movq	-16(%rbp), %rax
	movl	32(%rax), %esi
	addl	-4(%rbp), %esi
	movl	%esi, -4(%rbp)
	movq	-16(%rbp), %rax
	movl	36(%rax), %esi
	addl	-4(%rbp), %esi
	movl	%esi, -4(%rbp)
	movq	-16(%rbp), %rax
	movl	40(%rax), %esi
	addl	-4(%rbp), %esi
	movl	%esi, -4(%rbp)
	movq	-16(%rbp), %rax
	movl	44(%rax), %esi
	addl	-4(%rbp), %esi
	movl	%esi, -4(%rbp)
	movq	-16(%rbp), %rax
	movl	48(%rax), %esi
	addl	-4(%rbp), %esi
	movl	%esi, -4(%rbp)
	movq	-16(%rbp), %rax
	movl	52(%rax), %esi
	addl	-4(%rbp), %esi
	movl	%esi, -4(%rbp)
	movq	-16(%rbp), %rax
	movl	56(%rax), %esi
	addl	-4(%rbp), %esi
	movl	%esi, -4(%rbp)
	movq	-16(%rbp), %rax
	movl	60(%rax), %esi
	addl	-4(%rbp), %esi
	movl	%esi, -4(%rbp)
	movq	-16(%rbp), %rax
	movl	64(%rax), %esi
	addl	-4(%rbp), %esi
	movl	%esi, -4(%rbp)
	movq	-16(%rbp), %rax
	movl	68(%rax), %esi
	addl	-4(%rbp), %esi
	movl	%esi, -4(%rbp)
	movq	-16(%rbp), %rax
	movl	72(%rax), %esi
	addl	-4(%rbp), %esi
	movl	%esi, -4(%rbp)
	movq	-16(%rbp), %rax
	movl	76(%rax), %esi
	addl	-4(%rbp), %esi
	movl	%esi, -4(%rbp)
	movq	-16(%rbp), %rax
	movl	80(%rax), %esi
	addl	-4(%rbp), %esi
	movl	%esi, -4(%rbp)
	movq	-16(%rbp), %rax
	movl	84(%rax), %esi
	addl	-4(%rbp), %esi
	movl	%esi, -4(%rbp)
	movq	-16(%rbp), %rax
	movl	88(%rax), %esi
	addl	-4(%rbp), %esi
	movl	%esi, -4(%rbp)
	movq	-16(%rbp), %rax
	movl	92(%rax), %esi
	addl	-4(%rbp), %esi
	movl	%esi, -4(%rbp)
	movq	-16(%rbp), %rax
	movl	96(%rax), %esi
	addl	-4(%rbp), %esi
	movl	%esi, -4(%rbp)
	movq	-16(%rbp), %rax
	movl	100(%rax), %esi
	addl	-4(%rbp), %esi
	movl	%esi, -4(%rbp)
	movq	-16(%rbp), %rax
	movl	104(%rax), %esi
	addl	-4(%rbp), %esi
	movl	%esi, -4(%rbp)
	movq	-16(%rbp), %rax
	movl	108(%rax), %esi
	addl	-4(%rbp), %esi
	movl	%esi, -4(%rbp)
	movq	-16(%rbp), %rax
	movl	112(%rax), %esi
	addl	-4(%rbp), %esi
	movl	%esi, -4(%rbp)
	movq	-16(%rbp), %rax
	movl	116(%rax), %esi
	addl	-4(%rbp), %esi
	movl	%esi, -4(%rbp)
	movq	-16(%rbp), %rax
	movl	120(%rax), %esi
	addl	-4(%rbp), %esi
	movl	%esi, -4(%rbp)
	movq	-16(%rbp), %rax
	movl	124(%rax), %esi
	addl	-4(%rbp), %esi
	movl	%esi, -4(%rbp)
	movq	-16(%rbp), %rax
	movl	128(%rax), %esi
	addl	-4(%rbp), %esi
	movl	%esi, -4(%rbp)
	movq	-16(%rbp), %rax
	movl	132(%rax), %esi
	addl	-4(%rbp), %esi
	movl	%esi, -4(%rbp)
	movq	-16(%rbp), %rax
	movl	136(%rax), %esi
	addl	-4(%rbp), %esi
	movl	%esi, -4(%rbp)
	movq	-16(%rbp), %rax
	movl	140(%rax), %esi
	addl	-4(%rbp), %esi
	movl	%esi, -4(%rbp)
	movq	-16(%rbp), %rax
	movl	144(%rax), %esi
	addl	-4(%rbp), %esi
	movl	%esi, -4(%rbp)
	movq	-16(%rbp), %rax
	movl	148(%rax), %esi
	addl	-4(%rbp), %esi
	movl	%esi, -4(%rbp)
	movq	-16(%rbp), %rax
	movl	152(%rax), %esi
	addl	-4(%rbp), %esi
	movl	%esi, -4(%rbp)
	movq	-16(%rbp), %rax
	movl	156(%rax), %esi
	addl	-4(%rbp), %esi
	movl	%esi, -4(%rbp)
	movq	-16(%rbp), %rax
	movl	160(%rax), %esi
	addl	-4(%rbp), %esi
	movl	%esi, -4(%rbp)
	movq	-16(%rbp), %rax
	movl	164(%rax), %esi
	addl	-4(%rbp), %esi
	movl	%esi, -4(%rbp)
	movq	-16(%rbp), %rax
	movl	168(%rax), %esi
	addl	-4(%rbp), %esi
	movl	%esi, -4(%rbp)
	movq	-16(%rbp), %rax
	movl	172(%rax), %esi
	addl	-4(%rbp), %esi
	movl	%esi, -4(%rbp)
	movq	-16(%rbp), %rax
	movl	176(%rax), %esi
	addl	-4(%rbp), %esi
	movl	%esi, -4(%rbp)
	movq	-16(%rbp), %rax
	movl	180(%rax), %esi
	addl	-4(%rbp), %esi
	movl	%esi, -4(%rbp)
	movq	-16(%rbp), %rax
	movl	184(%rax), %esi
	addl	-4(%rbp), %esi
	movl	%esi, -4(%rbp)
	movq	-16(%rbp), %rax
	movl	188(%rax), %esi
	addl	-4(%rbp), %esi
	movl	%esi, -4(%rbp)
	movq	-16(%rbp), %rax
	movl	192(%rax), %esi
	addl	-4(%rbp), %esi
	movl	%esi, -4(%rbp)
	movq	-16(%rbp), %rax
	movl	196(%rax), %esi
	addl	-4(%rbp), %esi
	movl	%esi, -4(%rbp)
	movq	-16(%rbp), %rax
	movl	200(%rax), %esi
	addl	-4(%rbp), %esi
	movl	%esi, -4(%rbp)
	movq	-16(%rbp), %rax
	movl	204(%rax), %esi
	addl	-4(%rbp), %esi
	movl	%esi, -4(%rbp)
	movq	-16(%rbp), %rax
	movl	208(%rax), %esi
	addl	-4(%rbp), %esi
	movl	%esi, -4(%rbp)
	movq	-16(%rbp), %rax
	movl	212(%rax), %esi
	addl	-4(%rbp), %esi
	movl	%esi, -4(%rbp)
	movq	-16(%rbp), %rax
	movl	216(%rax), %esi
	addl	-4(%rbp), %esi
	movl	%esi, -4(%rbp)
	movq	-16(%rbp), %rax
	movl	220(%rax), %esi
	addl	-4(%rbp), %esi
	movl	%esi, -4(%rbp)
	movq	-16(%rbp), %rax
	movl	224(%rax), %esi
	addl	-4(%rbp), %esi
	movl	%esi, -4(%rbp)
	movq	-16(%rbp), %rax
	movl	228(%rax), %esi
	addl	-4(%rbp), %esi
	movl	%esi, -4(%rbp)
	movq	-16(%rbp), %rax
	movl	232(%rax), %esi
	addl	-4(%rbp), %esi
	movl	%esi, -4(%rbp)
	movq	-16(%rbp), %rax
	movl	236(%rax), %esi
	addl	-4(%rbp), %esi
	movl	%esi, -4(%rbp)
	movq	-16(%rbp), %rax
	movl	240(%rax), %esi
	addl	-4(%rbp), %esi
	movl	%esi, -4(%rbp)
	movq	-16(%rbp), %rax
	movl	244(%rax), %esi
	addl	-4(%rbp), %esi
	movl	%esi, -4(%rbp)
	movq	-16(%rbp), %rax
	movl	248(%rax), %esi
	addl	-4(%rbp), %esi
	movl	%esi, -4(%rbp)
	movq	-16(%rbp), %rax
	movl	252(%rax), %esi
	addl	-4(%rbp), %esi
	movl	%esi, -4(%rbp)
	movq	-16(%rbp), %rax
	movl	256(%rax), %esi
	addl	-4(%rbp), %esi
	movl	%esi, -4(%rbp)
	movq	-16(%rbp), %rax
	movl	260(%rax), %esi
	addl	-4(%rbp), %esi
	movl	%esi, -4(%rbp)
	movq	-16(%rbp), %rax
	movl	264(%rax), %esi
	addl	-4(%rbp), %esi
	movl	%esi, -4(%rbp)
	movq	-16(%rbp), %rax
	movl	268(%rax), %esi
	addl	-4(%rbp), %esi
	movl	%esi, -4(%rbp)
	movq	-16(%rbp), %rax
	movl	272(%rax), %esi
	addl	-4(%rbp), %esi
	movl	%esi, -4(%rbp)
	movq	-16(%rbp), %rax
	movl	276(%rax), %esi
	addl	-4(%rbp), %esi
	movl	%esi, -4(%rbp)
	movq	-16(%rbp), %rax
	movl	280(%rax), %esi
	addl	-4(%rbp), %esi
	movl	%esi, -4(%rbp)
	movq	-16(%rbp), %rax
	movl	284(%rax), %esi
	addl	-4(%rbp), %esi
	movl	%esi, -4(%rbp)
	movq	-16(%rbp), %rax
	movl	288(%rax), %esi
	addl	-4(%rbp), %esi
	movl	%esi, -4(%rbp)
	movq	-16(%rbp), %rax
	movl	292(%rax), %esi
	addl	-4(%rbp), %esi
	movl	%esi, -4(%rbp)
	movq	-16(%rbp), %rax
	movl	296(%rax), %esi
	addl	-4(%rbp), %esi
	movl	%esi, -4(%rbp)
	movq	-16(%rbp), %rax
	movl	300(%rax), %esi
	addl	-4(%rbp), %esi
	movl	%esi, -4(%rbp)
	movq	-16(%rbp), %rax
	movl	304(%rax), %esi
	addl	-4(%rbp), %esi
	movl	%esi, -4(%rbp)
	movq	-16(%rbp), %rax
	movl	308(%rax), %esi
	addl	-4(%rbp), %esi
	movl	%esi, -4(%rbp)
	movq	-16(%rbp), %rax
	movl	312(%rax), %esi
	addl	-4(%rbp), %esi
	movl	%esi, -4(%rbp)
	movq	-16(%rbp), %rax
	movl	316(%rax), %esi
	addl	-4(%rbp), %esi
	movl	%esi, -4(%rbp)
	movq	-16(%rbp), %rax
	movl	320(%rax), %esi
	addl	-4(%rbp), %esi
	movl	%esi, -4(%rbp)
	movq	-16(%rbp), %rax
	movl	324(%rax), %esi
	addl	-4(%rbp), %esi
	movl	%esi, -4(%rbp)
	movq	-16(%rbp), %rax
	movl	328(%rax), %esi
	addl	-4(%rbp), %esi
	movl	%esi, -4(%rbp)
	movq	-16(%rbp), %rax
	movl	332(%rax), %esi
	addl	-4(%rbp), %esi
	movl	%esi, -4(%rbp)
	movq	-16(%rbp), %rax
	movl	336(%rax), %esi
	addl	-4(%rbp), %esi
	movl	%esi, -4(%rbp)
	movq	-16(%rbp), %rax
	movl	340(%rax), %esi
	addl	-4(%rbp), %esi
	movl	%esi, -4(%rbp)
	movq	-16(%rbp), %rax
	movl	344(%rax), %esi
	addl	-4(%rbp), %esi
	movl	%esi, -4(%rbp)
	movq	-16(%rbp), %rax
	movl	348(%rax), %esi
	addl	-4(%rbp), %esi
	movl	%esi, -4(%rbp)
	movq	-16(%rbp), %rax
	movl	352(%rax), %esi
	addl	-4(%rbp), %esi
	movl	%esi, -4(%rbp)
	movq	-16(%rbp), %rax
	movl	356(%rax), %esi
	addl	-4(%rbp), %esi
	movl	%esi, -4(%rbp)
	movq	-16(%rbp), %rax
	movl	360(%rax), %esi
	addl	-4(%rbp), %esi
	movl	%esi, -4(%rbp)
	movq	-16(%rbp), %rax
	movl	364(%rax), %esi
	addl	-4(%rbp), %esi
	movl	%esi, -4(%rbp)
	movq	-16(%rbp), %rax
	movl	368(%rax), %esi
	addl	-4(%rbp), %esi
	movl	%esi, -4(%rbp)
	movq	-16(%rbp), %rax
	movl	372(%rax), %esi
	addl	-4(%rbp), %esi
	movl	%esi, -4(%rbp)
	movq	-16(%rbp), %rax
	movl	376(%rax), %esi
	addl	-4(%rbp), %esi
	movl	%esi, -4(%rbp)
	movq	-16(%rbp), %rax
	movl	380(%rax), %esi
	addl	-4(%rbp), %esi
	movl	%esi, -4(%rbp)
	movq	-16(%rbp), %rax
	movl	384(%rax), %esi
	addl	-4(%rbp), %esi
	movl	%esi, -4(%rbp)
	movq	-16(%rbp), %rax
	movl	388(%rax), %esi
	addl	-4(%rbp), %esi
	movl	%esi, -4(%rbp)
	movq	-16(%rbp), %rax
	movl	392(%rax), %esi
	addl	-4(%rbp), %esi
	movl	%esi, -4(%rbp)
	movq	-16(%rbp), %rax
	movl	396(%rax), %esi
	addl	-4(%rbp), %esi
	movl	%esi, -4(%rbp)
	movq	-16(%rbp), %rax
	movl	400(%rax), %esi
	addl	-4(%rbp), %esi
	movl	%esi, -4(%rbp)
	movq	-16(%rbp), %rax
	movl	404(%rax), %esi
	addl	-4(%rbp), %esi
	movl	%esi, -4(%rbp)
	movq	-16(%rbp), %rax
	movl	408(%rax), %esi
	addl	-4(%rbp), %esi
	movl	%esi, -4(%rbp)
	movq	-16(%rbp), %rax
	movl	412(%rax), %esi
	addl	-4(%rbp), %esi
	movl	%esi, -4(%rbp)
	movq	-16(%rbp), %rax
	movl	416(%rax), %esi
	addl	-4(%rbp), %esi
	movl	%esi, -4(%rbp)
	movq	-16(%rbp), %rax
	movl	420(%rax), %esi
	addl	-4(%rbp), %esi
	movl	%esi, -4(%rbp)
	movq	-16(%rbp), %rax
	movl	424(%rax), %esi
	addl	-4(%rbp), %esi
	movl	%esi, -4(%rbp)
	movq	-16(%rbp), %rax
	movl	428(%rax), %esi
	addl	-4(%rbp), %esi
	movl	%esi, -4(%rbp)
	movq	-16(%rbp), %rax
	movl	432(%rax), %esi
	addl	-4(%rbp), %esi
	movl	%esi, -4(%rbp)
	movq	-16(%rbp), %rax
	movl	436(%rax), %esi
	addl	-4(%rbp), %esi
	movl	%esi, -4(%rbp)
	movq	-16(%rbp), %rax
	movl	440(%rax), %esi
	addl	-4(%rbp), %esi
	movl	%esi, -4(%rbp)
	movq	-16(%rbp), %rax
	movl	444(%rax), %esi
	addl	-4(%rbp), %esi
	movl	%esi, -4(%rbp)
	movq	-16(%rbp), %rax
	movl	448(%rax), %esi
	addl	-4(%rbp), %esi
	movl	%esi, -4(%rbp)
	movq	-16(%rbp), %rax
	movl	452(%rax), %esi
	addl	-4(%rbp), %esi
	movl	%esi, -4(%rbp)
	movq	-16(%rbp), %rax
	movl	456(%rax), %esi
	addl	-4(%rbp), %esi
	movl	%esi, -4(%rbp)
	movq	-16(%rbp), %rax
	movl	460(%rax), %esi
	addl	-4(%rbp), %esi
	movl	%esi, -4(%rbp)
	movq	-16(%rbp), %rax
	movl	464(%rax), %esi
	addl	-4(%rbp), %esi
	movl	%esi, -4(%rbp)
	movq	-16(%rbp), %rax
	movl	468(%rax), %esi
	addl	-4(%rbp), %esi
	movl	%esi, -4(%rbp)
	movq	-16(%rbp), %rax
	movl	472(%rax), %esi
	addl	-4(%rbp), %esi
	movl	%esi, -4(%rbp)
	movq	-16(%rbp), %rax
	movl	476(%rax), %esi
	addl	-4(%rbp), %esi
	movl	%esi, -4(%rbp)
	movq	-16(%rbp), %rax
	movl	480(%rax), %esi
	addl	-4(%rbp), %esi
	movl	%esi, -4(%rbp)
	movq	-16(%rbp), %rax
	movl	484(%rax), %esi
	addl	-4(%rbp), %esi
	movl	%esi, -4(%rbp)
	movq	-16(%rbp), %rax
	movl	488(%rax), %esi
	addl	-4(%rbp), %esi
	movl	%esi, -4(%rbp)
	movq	-16(%rbp), %rax
	movl	492(%rax), %esi
	addl	-4(%rbp), %esi
	movl	%esi, -4(%rbp)
	movq	-16(%rbp), %rax
	movl	496(%rax), %esi
	addl	-4(%rbp), %esi
	movl	%esi, -4(%rbp)
	movq	-16(%rbp), %rax
	movl	500(%rax), %esi
	addl	-4(%rbp), %esi
	movl	%esi, -4(%rbp)
	movq	-16(%rbp), %rax
	movl	504(%rax), %esi
	addl	-4(%rbp), %esi
	movl	%esi, -4(%rbp)
	movq	-16(%rbp), %rax
	movl	508(%rax), %esi
	addl	-4(%rbp), %esi
	movl	%esi, -4(%rbp)
	movq	-16(%rbp), %rax
	movl	512(%rax), %esi
	addl	-4(%rbp), %esi
	movl	%esi, -4(%rbp)
	movq	-16(%rbp), %rax
	movl	516(%rax), %esi
	addl	-4(%rbp), %esi
	movl	%esi, -4(%rbp)
	movq	-16(%rbp), %rax
	movl	520(%rax), %esi
	addl	-4(%rbp), %esi
	movl	%esi, -4(%rbp)
	movq	-16(%rbp), %rax
	movl	524(%rax), %esi
	addl	-4(%rbp), %esi
	movl	%esi, -4(%rbp)
	movq	-16(%rbp), %rax
	movl	528(%rax), %esi
	addl	-4(%rbp), %esi
	movl	%esi, -4(%rbp)
	movq	-16(%rbp), %rax
	movl	532(%rax), %esi
	addl	-4(%rbp), %esi
	movl	%esi, -4(%rbp)
	movq	-16(%rbp), %rax
	movl	536(%rax), %esi
	addl	-4(%rbp), %esi
	movl	%esi, -4(%rbp)
	movq	-16(%rbp), %rax
	movl	540(%rax), %esi
	addl	-4(%rbp), %esi
	movl	%esi, -4(%rbp)
	movq	-16(%rbp), %rax
	movl	544(%rax), %esi
	addl	-4(%rbp), %esi
	movl	%esi, -4(%rbp)
	movq	-16(%rbp), %rax
	movl	548(%rax), %esi
	addl	-4(%rbp), %esi
	movl	%esi, -4(%rbp)
	movq	-16(%rbp), %rax
	movl	552(%rax), %esi
	addl	-4(%rbp), %esi
	movl	%esi, -4(%rbp)
	movq	-16(%rbp), %rax
	movl	556(%rax), %esi
	addl	-4(%rbp), %esi
	movl	%esi, -4(%rbp)
	movq	-16(%rbp), %rax
	movl	560(%rax), %esi
	addl	-4(%rbp), %esi
	movl	%esi, -4(%rbp)
	movq	-16(%rbp), %rax
	movl	564(%rax), %esi
	addl	-4(%rbp), %esi
	movl	%esi, -4(%rbp)
	movq	-16(%rbp), %rax
	movl	568(%rax), %esi
	addl	-4(%rbp), %esi
	movl	%esi, -4(%rbp)
	movq	-16(%rbp), %rax
	movl	572(%rax), %esi
	addl	-4(%rbp), %esi
	movl	%esi, -4(%rbp)
	movq	-16(%rbp), %rax
	movl	576(%rax), %esi
	addl	-4(%rbp), %esi
	movl	%esi, -4(%rbp)
	movq	-16(%rbp), %rax
	movl	580(%rax), %esi
	addl	-4(%rbp), %esi
	movl	%esi, -4(%rbp)
	movq	-16(%rbp), %rax
	movl	584(%rax), %esi
	addl	-4(%rbp), %esi
	movl	%esi, -4(%rbp)
	movq	-16(%rbp), %rax
	movl	588(%rax), %esi
	addl	-4(%rbp), %esi
	movl	%esi, -4(%rbp)
	movq	-16(%rbp), %rax
	movl	592(%rax), %esi
	addl	-4(%rbp), %esi
	movl	%esi, -4(%rbp)
	movq	-16(%rbp), %rax
	movl	596(%rax), %esi
	addl	-4(%rbp), %esi
	movl	%esi, -4(%rbp)
	movq	-16(%rbp), %rax
	movl	600(%rax), %esi
	addl	-4(%rbp), %esi
	movl	%esi, -4(%rbp)
	movq	-16(%rbp), %rax
	movl	604(%rax), %esi
	addl	-4(%rbp), %esi
	movl	%esi, -4(%rbp)
	movq	-16(%rbp), %rax
	movl	608(%rax), %esi
	addl	-4(%rbp), %esi
	movl	%esi, -4(%rbp)
	movq	-16(%rbp), %rax
	movl	612(%rax), %esi
	addl	-4(%rbp), %esi
	movl	%esi, -4(%rbp)
	movq	-16(%rbp), %rax
	movl	616(%rax), %esi
	addl	-4(%rbp), %esi
	movl	%esi, -4(%rbp)
	movq	-16(%rbp), %rax
	movl	620(%rax), %esi
	addl	-4(%rbp), %esi
	movl	%esi, -4(%rbp)
	movq	-16(%rbp), %rax
	movl	624(%rax), %esi
	addl	-4(%rbp), %esi
	movl	%esi, -4(%rbp)
	movq	-16(%rbp), %rax
	movl	628(%rax), %esi
	addl	-4(%rbp), %esi
	movl	%esi, -4(%rbp)
	movq	-16(%rbp), %rax
	movl	632(%rax), %esi
	addl	-4(%rbp), %esi
	movl	%esi, -4(%rbp)
	movq	-16(%rbp), %rax
	movl	636(%rax), %esi
	addl	-4(%rbp), %esi
	movl	%esi, -4(%rbp)
	movq	-16(%rbp), %rax
	movl	640(%rax), %esi
	addl	-4(%rbp), %esi
	movl	%esi, -4(%rbp)
	movq	-16(%rbp), %rax
	movl	644(%rax), %esi
	addl	-4(%rbp), %esi
	movl	%esi, -4(%rbp)
	movq	-16(%rbp), %rax
	movl	648(%rax), %esi
	addl	-4(%rbp), %esi
	movl	%esi, -4(%rbp)
	movq	-16(%rbp), %rax
	movl	652(%rax), %esi
	addl	-4(%rbp), %esi
	movl	%esi, -4(%rbp)
	movq	-16(%rbp), %rax
	movl	656(%rax), %esi
	addl	-4(%rbp), %esi
	movl	%esi, -4(%rbp)
	movq	-16(%rbp), %rax
	movl	660(%rax), %esi
	addl	-4(%rbp), %esi
	movl	%esi, -4(%rbp)
	movq	-16(%rbp), %rax
	movl	664(%rax), %esi
	addl	-4(%rbp), %esi
	movl	%esi, -4(%rbp)
	movq	-16(%rbp), %rax
	movl	668(%rax), %esi
	addl	-4(%rbp), %esi
	movl	%esi, -4(%rbp)
	movq	-16(%rbp), %rax
	movl	672(%rax), %esi
	addl	-4(%rbp), %esi
	movl	%esi, -4(%rbp)
	movq	-16(%rbp), %rax
	movl	676(%rax), %esi
	addl	-4(%rbp), %esi
	movl	%esi, -4(%rbp)
	movq	-16(%rbp), %rax
	movl	680(%rax), %esi
	addl	-4(%rbp), %esi
	movl	%esi, -4(%rbp)
	movq	-16(%rbp), %rax
	movl	684(%rax), %esi
	addl	-4(%rbp), %esi
	movl	%esi, -4(%rbp)
	movq	-16(%rbp), %rax
	movl	688(%rax), %esi
	addl	-4(%rbp), %esi
	movl	%esi, -4(%rbp)
	movq	-16(%rbp), %rax
	movl	692(%rax), %esi
	addl	-4(%rbp), %esi
	movl	%esi, -4(%rbp)
	movq	-16(%rbp), %rax
	movl	696(%rax), %esi
	addl	-4(%rbp), %esi
	movl	%esi, -4(%rbp)
	movq	-16(%rbp), %rax
	movl	700(%rax), %esi
	addl	-4(%rbp), %esi
	movl	%esi, -4(%rbp)
	movq	-16(%rbp), %rax
	movl	704(%rax), %esi
	addl	-4(%rbp), %esi
	movl	%esi, -4(%rbp)
	movq	-16(%rbp), %rax
	movl	708(%rax), %esi
	addl	-4(%rbp), %esi
	movl	%esi, -4(%rbp)
	movq	-16(%rbp), %rax
	movl	712(%rax), %esi
	addl	-4(%rbp), %esi
	movl	%esi, -4(%rbp)
	movq	-16(%rbp), %rax
	movl	716(%rax), %esi
	addl	-4(%rbp), %esi
	movl	%esi, -4(%rbp)
	movq	-16(%rbp), %rax
	movl	720(%rax), %esi
	addl	-4(%rbp), %esi
	movl	%esi, -4(%rbp)
	movq	-16(%rbp), %rax
	movl	724(%rax), %esi
	addl	-4(%rbp), %esi
	movl	%esi, -4(%rbp)
	movq	-16(%rbp), %rax
	movl	728(%rax), %esi
	addl	-4(%rbp), %esi
	movl	%esi, -4(%rbp)
	movq	-16(%rbp), %rax
	movl	732(%rax), %esi
	addl	-4(%rbp), %esi
	movl	%esi, -4(%rbp)
	movq	-16(%rbp), %rax
	movl	736(%rax), %esi
	addl	-4(%rbp), %esi
	movl	%esi, -4(%rbp)
	movq	-16(%rbp), %rax
	movl	740(%rax), %esi
	addl	-4(%rbp), %esi
	movl	%esi, -4(%rbp)
	movq	-16(%rbp), %rax
	movl	744(%rax), %esi
	addl	-4(%rbp), %esi
	movl	%esi, -4(%rbp)
	movq	-16(%rbp), %rax
	movl	748(%rax), %esi
	addl	-4(%rbp), %esi
	movl	%esi, -4(%rbp)
	movq	-16(%rbp), %rax
	movl	752(%rax), %esi
	addl	-4(%rbp), %esi
	movl	%esi, -4(%rbp)
	movq	-16(%rbp), %rax
	movl	756(%rax), %esi
	addl	-4(%rbp), %esi
	movl	%esi, -4(%rbp)
	movq	-16(%rbp), %rax
	movl	760(%rax), %esi
	addl	-4(%rbp), %esi
	movl	%esi, -4(%rbp)
	movq	-16(%rbp), %rax
	movl	764(%rax), %esi
	addl	-4(%rbp), %esi
	movl	%esi, -4(%rbp)
	movq	-16(%rbp), %rax
	movl	768(%rax), %esi
	addl	-4(%rbp), %esi
	movl	%esi, -4(%rbp)
	movq	-16(%rbp), %rax
	movl	772(%rax), %esi
	addl	-4(%rbp), %esi
	movl	%esi, -4(%rbp)
	movq	-16(%rbp), %rax
	movl	776(%rax), %esi
	addl	-4(%rbp), %esi
	movl	%esi, -4(%rbp)
	movq	-16(%rbp), %rax
	movl	780(%rax), %esi
	addl	-4(%rbp), %esi
	movl	%esi, -4(%rbp)
	movq	-16(%rbp), %rax
	movl	784(%rax), %esi
	addl	-4(%rbp), %esi
	movl	%esi, -4(%rbp)
	movq	-16(%rbp), %rax
	movl	788(%rax), %esi
	addl	-4(%rbp), %esi
	movl	%esi, -4(%rbp)
	movq	-16(%rbp), %rax
	movl	792(%rax), %esi
	addl	-4(%rbp), %esi
	movl	%esi, -4(%rbp)
	movq	-16(%rbp), %rax
	movl	796(%rax), %esi
	addl	-4(%rbp), %esi
	movl	%esi, -4(%rbp)
	movq	-16(%rbp), %rax
	movl	800(%rax), %esi
	addl	-4(%rbp), %esi
	movl	%esi, -4(%rbp)
	movq	-16(%rbp), %rax
	movl	804(%rax), %esi
	addl	-4(%rbp), %esi
	movl	%esi, -4(%rbp)
	movq	-16(%rbp), %rax
	movl	808(%rax), %esi
	addl	-4(%rbp), %esi
	movl	%esi, -4(%rbp)
	movq	-16(%rbp), %rax
	movl	812(%rax), %esi
	addl	-4(%rbp), %esi
	movl	%esi, -4(%rbp)
	movq	-16(%rbp), %rax
	movl	816(%rax), %esi
	addl	-4(%rbp), %esi
	movl	%esi, -4(%rbp)
	movq	-16(%rbp), %rax
	movl	820(%rax), %esi
	addl	-4(%rbp), %esi
	movl	%esi, -4(%rbp)
	movq	-16(%rbp), %rax
	movl	824(%rax), %esi
	addl	-4(%rbp), %esi
	movl	%esi, -4(%rbp)
	movq	-16(%rbp), %rax
	movl	828(%rax), %esi
	addl	-4(%rbp), %esi
	movl	%esi, -4(%rbp)
	movq	-16(%rbp), %rax
	movl	832(%rax), %esi
	addl	-4(%rbp), %esi
	movl	%esi, -4(%rbp)
	movq	-16(%rbp), %rax
	movl	836(%rax), %esi
	addl	-4(%rbp), %esi
	movl	%esi, -4(%rbp)
	movq	-16(%rbp), %rax
	movl	840(%rax), %esi
	addl	-4(%rbp), %esi
	movl	%esi, -4(%rbp)
	movq	-16(%rbp), %rax
	movl	844(%rax), %esi
	addl	-4(%rbp), %esi
	movl	%esi, -4(%rbp)
	movq	-16(%rbp), %rax
	movl	848(%rax), %esi
	addl	-4(%rbp), %esi
	movl	%esi, -4(%rbp)
	movq	-16(%rbp), %rax
	movl	852(%rax), %esi
	addl	-4(%rbp), %esi
	movl	%esi, -4(%rbp)
	movq	-16(%rbp), %rax
	movl	856(%rax), %esi
	addl	-4(%rbp), %esi
	movl	%esi, -4(%rbp)
	movq	-16(%rbp), %rax
	movl	860(%rax), %esi
	addl	-4(%rbp), %esi
	movl	%esi, -4(%rbp)
	movq	-16(%rbp), %rax
	movl	864(%rax), %esi
	addl	-4(%rbp), %esi
	movl	%esi, -4(%rbp)
	movq	-16(%rbp), %rax
	movl	868(%rax), %esi
	addl	-4(%rbp), %esi
	movl	%esi, -4(%rbp)
	movq	-16(%rbp), %rax
	movl	872(%rax), %esi
	addl	-4(%rbp), %esi
	movl	%esi, -4(%rbp)
	movq	-16(%rbp), %rax
	movl	876(%rax), %esi
	addl	-4(%rbp), %esi
	movl	%esi, -4(%rbp)
	movq	-16(%rbp), %rax
	movl	880(%rax), %esi
	addl	-4(%rbp), %esi
	movl	%esi, -4(%rbp)
	movq	-16(%rbp), %rax
	movl	884(%rax), %esi
	addl	-4(%rbp), %esi
	movl	%esi, -4(%rbp)
	movq	-16(%rbp), %rax
	movl	888(%rax), %esi
	addl	-4(%rbp), %esi
	movl	%esi, -4(%rbp)
	movq	-16(%rbp), %rax
	movl	892(%rax), %esi
	addl	-4(%rbp), %esi
	movl	%esi, -4(%rbp)
	movq	-16(%rbp), %rax
	movl	896(%rax), %esi
	addl	-4(%rbp), %esi
	movl	%esi, -4(%rbp)
	movq	-16(%rbp), %rax
	movl	900(%rax), %esi
	addl	-4(%rbp), %esi
	movl	%esi, -4(%rbp)
	movq	-16(%rbp), %rax
	movl	904(%rax), %esi
	addl	-4(%rbp), %esi
	movl	%esi, -4(%rbp)
	movq	-16(%rbp), %rax
	movl	908(%rax), %esi
	addl	-4(%rbp), %esi
	movl	%esi, -4(%rbp)
	movq	-16(%rbp), %rax
	movl	912(%rax), %esi
	addl	-4(%rbp), %esi
	movl	%esi, -4(%rbp)
	movq	-16(%rbp), %rax
	movl	916(%rax), %esi
	addl	-4(%rbp), %esi
	movl	%esi, -4(%rbp)
	movq	-16(%rbp), %rax
	movl	920(%rax), %esi
	addl	-4(%rbp), %esi
	movl	%esi, -4(%rbp)
	movq	-16(%rbp), %rax
	movl	924(%rax), %esi
	addl	-4(%rbp), %esi
	movl	%esi, -4(%rbp)
	movq	-16(%rbp), %rax
	movl	928(%rax), %esi
	addl	-4(%rbp), %esi
	movl	%esi, -4(%rbp)
	movq	-16(%rbp), %rax
	movl	932(%rax), %esi
	addl	-4(%rbp), %esi
	movl	%esi, -4(%rbp)
	movq	-16(%rbp), %rax
	movl	936(%rax), %esi
	addl	-4(%rbp), %esi
	movl	%esi, -4(%rbp)
	movq	-16(%rbp), %rax
	movl	940(%rax), %esi
	addl	-4(%rbp), %esi
	movl	%esi, -4(%rbp)
	movq	-16(%rbp), %rax
	movl	944(%rax), %esi
	addl	-4(%rbp), %esi
	movl	%esi, -4(%rbp)
	movq	-16(%rbp), %rax
	movl	948(%rax), %esi
	addl	-4(%rbp), %esi
	movl	%esi, -4(%rbp)
	movq	-16(%rbp), %rax
	movl	952(%rax), %esi
	addl	-4(%rbp), %esi
	movl	%esi, -4(%rbp)
	movq	-16(%rbp), %rax
	movl	956(%rax), %esi
	addl	-4(%rbp), %esi
	movl	%esi, -4(%rbp)
	movq	-16(%rbp), %rax
	movl	960(%rax), %esi
	addl	-4(%rbp), %esi
	movl	%esi, -4(%rbp)
	movq	-16(%rbp), %rax
	movl	964(%rax), %esi
	addl	-4(%rbp), %esi
	movl	%esi, -4(%rbp)
	movq	-16(%rbp), %rax
	movl	968(%rax), %esi
	addl	-4(%rbp), %esi
	movl	%esi, -4(%rbp)
	movq	-16(%rbp), %rax
	movl	972(%rax), %esi
	addl	-4(%rbp), %esi
	movl	%esi, -4(%rbp)
	movq	-16(%rbp), %rax
	movl	976(%rax), %esi
	addl	-4(%rbp), %esi
	movl	%esi, -4(%rbp)
	movq	-16(%rbp), %rax
	movl	980(%rax), %esi
	addl	-4(%rbp), %esi
	movl	%esi, -4(%rbp)
	movq	-16(%rbp), %rax
	movl	984(%rax), %esi
	addl	-4(%rbp), %esi
	movl	%esi, -4(%rbp)
	movq	-16(%rbp), %rax
	movl	988(%rax), %esi
	addl	-4(%rbp), %esi
	movl	%esi, -4(%rbp)
	movq	-16(%rbp), %rax
	movl	992(%rax), %esi
	addl	-4(%rbp), %esi
	movl	%esi, -4(%rbp)
	movq	-16(%rbp), %rax
	movl	996(%rax), %esi
	addl	-4(%rbp), %esi
	movl	%esi, -4(%rbp)
	movq	-16(%rbp), %rax
	movl	1000(%rax), %esi
	addl	-4(%rbp), %esi
	movl	%esi, -4(%rbp)
	movq	-16(%rbp), %rax
	movl	1004(%rax), %esi
	addl	-4(%rbp), %esi
	movl	%esi, -4(%rbp)
	movq	-16(%rbp), %rax
	movl	1008(%rax), %esi
	addl	-4(%rbp), %esi
	movl	%esi, -4(%rbp)
	movq	-16(%rbp), %rax
	movl	1012(%rax), %esi
	addl	-4(%rbp), %esi
	movl	%esi, -4(%rbp)
	movq	-16(%rbp), %rax
	movl	1016(%rax), %esi
	addl	-4(%rbp), %esi
	movl	%esi, -4(%rbp)
	movq	-16(%rbp), %rax
	movl	1020(%rax), %esi
	addl	-4(%rbp), %esi
	movl	%esi, -4(%rbp)
	movq	-16(%rbp), %rax
	movl	1024(%rax), %esi
	addl	-4(%rbp), %esi
	movl	%esi, -4(%rbp)
	movq	-16(%rbp), %rax
	movl	1028(%rax), %esi
	addl	-4(%rbp), %esi
	movl	%esi, -4(%rbp)
	movq	-16(%rbp), %rax
	movl	1032(%rax), %esi
	addl	-4(%rbp), %esi
	movl	%esi, -4(%rbp)
	movq	-16(%rbp), %rax
	movl	1036(%rax), %esi
	addl	-4(%rbp), %esi
	movl	%esi, -4(%rbp)
	movq	-16(%rbp), %rax
	movl	1040(%rax), %esi
	addl	-4(%rbp), %esi
	movl	%esi, -4(%rbp)
	movq	-16(%rbp), %rax
	movl	1044(%rax), %esi
	addl	-4(%rbp), %esi
	movl	%esi, -4(%rbp)
	movq	-16(%rbp), %rax
	movl	1048(%rax), %esi
	addl	-4(%rbp), %esi
	movl	%esi, -4(%rbp)
	movq	-16(%rbp), %rax
	movl	1052(%rax), %esi
	addl	-4(%rbp), %esi
	movl	%esi, -4(%rbp)
	movq	-16(%rbp), %rax
	movl	1056(%rax), %esi
	addl	-4(%rbp), %esi
	movl	%esi, -4(%rbp)
	movq	-16(%rbp), %rax
	movl	1060(%rax), %esi
	addl	-4(%rbp), %esi
	movl	%esi, -4(%rbp)
	movq	-16(%rbp), %rax
	movl	1064(%rax), %esi
	addl	-4(%rbp), %esi
	movl	%esi, -4(%rbp)
	movq	-16(%rbp), %rax
	movl	1068(%rax), %esi
	addl	-4(%rbp), %esi
	movl	%esi, -4(%rbp)
	movq	-16(%rbp), %rax
	movl	1072(%rax), %esi
	addl	-4(%rbp), %esi
	movl	%esi, -4(%rbp)
	movq	-16(%rbp), %rax
	movl	1076(%rax), %esi
	addl	-4(%rbp), %esi
	movl	%esi, -4(%rbp)
	movq	-16(%rbp), %rax
	movl	1080(%rax), %esi
	addl	-4(%rbp), %esi
	movl	%esi, -4(%rbp)
	movq	-16(%rbp), %rax
	movl	1084(%rax), %esi
	addl	-4(%rbp), %esi
	movl	%esi, -4(%rbp)
	movq	-16(%rbp), %rax
	movl	1088(%rax), %esi
	addl	-4(%rbp), %esi
	movl	%esi, -4(%rbp)
	movq	-16(%rbp), %rax
	movl	1092(%rax), %esi
	addl	-4(%rbp), %esi
	movl	%esi, -4(%rbp)
	movq	-16(%rbp), %rax
	movl	1096(%rax), %esi
	addl	-4(%rbp), %esi
	movl	%esi, -4(%rbp)
	movq	-16(%rbp), %rax
	movl	1100(%rax), %esi
	addl	-4(%rbp), %esi
	movl	%esi, -4(%rbp)
	movq	-16(%rbp), %rax
	movl	1104(%rax), %esi
	addl	-4(%rbp), %esi
	movl	%esi, -4(%rbp)
	movq	-16(%rbp), %rax
	movl	1108(%rax), %esi
	addl	-4(%rbp), %esi
	movl	%esi, -4(%rbp)
	movq	-16(%rbp), %rax
	movl	1112(%rax), %esi
	addl	-4(%rbp), %esi
	movl	%esi, -4(%rbp)
	movq	-16(%rbp), %rax
	movl	1116(%rax), %esi
	addl	-4(%rbp), %esi
	movl	%esi, -4(%rbp)
	movq	-16(%rbp), %rax
	movl	1120(%rax), %esi
	addl	-4(%rbp), %esi
	movl	%esi, -4(%rbp)
	movq	-16(%rbp), %rax
	movl	1124(%rax), %esi
	addl	-4(%rbp), %esi
	movl	%esi, -4(%rbp)
	movq	-16(%rbp), %rax
	movl	1128(%rax), %esi
	addl	-4(%rbp), %esi
	movl	%esi, -4(%rbp)
	movq	-16(%rbp), %rax
	movl	1132(%rax), %esi
	addl	-4(%rbp), %esi
	movl	%esi, -4(%rbp)
	movq	-16(%rbp), %rax
	movl	1136(%rax), %esi
	addl	-4(%rbp), %esi
	movl	%esi, -4(%rbp)
	movq	-16(%rbp), %rax
	movl	1140(%rax), %esi
	addl	-4(%rbp), %esi
	movl	%esi, -4(%rbp)
	movq	-16(%rbp), %rax
	movl	1144(%rax), %esi
	addl	-4(%rbp), %esi
	movl	%esi, -4(%rbp)
	movq	-16(%rbp), %rax
	movl	1148(%rax), %esi
	addl	-4(%rbp), %esi
	movl	%esi, -4(%rbp)
	movq	-16(%rbp), %rax
	movl	1152(%rax), %esi
	addl	-4(%rbp), %esi
	movl	%esi, -4(%rbp)
	movq	-16(%rbp), %rax
	movl	1156(%rax), %esi
	addl	-4(%rbp), %esi
	movl	%esi, -4(%rbp)
	movq	-16(%rbp), %rax
	movl	1160(%rax), %esi
	addl	-4(%rbp), %esi
	movl	%esi, -4(%rbp)
	movq	-16(%rbp), %rax
	movl	1164(%rax), %esi
	addl	-4(%rbp), %esi
	movl	%esi, -4(%rbp)
	movq	-16(%rbp), %rax
	movl	1168(%rax), %esi
	addl	-4(%rbp), %esi
	movl	%esi, -4(%rbp)
	movq	-16(%rbp), %rax
	movl	1172(%rax), %esi
	addl	-4(%rbp), %esi
	movl	%esi, -4(%rbp)
	movq	-16(%rbp), %rax
	movl	1176(%rax), %esi
	addl	-4(%rbp), %esi
	movl	%esi, -4(%rbp)
	movq	-16(%rbp), %rax
	movl	1180(%rax), %esi
	addl	-4(%rbp), %esi
	movl	%esi, -4(%rbp)
	movq	-16(%rbp), %rax
	movl	1184(%rax), %esi
	addl	-4(%rbp), %esi
	movl	%esi, -4(%rbp)
	movq	-16(%rbp), %rax
	movl	1188(%rax), %esi
	addl	-4(%rbp), %esi
	movl	%esi, -4(%rbp)
	movq	-16(%rbp), %rax
	movl	1192(%rax), %esi
	addl	-4(%rbp), %esi
	movl	%esi, -4(%rbp)
	movq	-16(%rbp), %rax
	movl	1196(%rax), %esi
	addl	-4(%rbp), %esi
	movl	%esi, -4(%rbp)
	movq	-16(%rbp), %rax
	movl	1200(%rax), %esi
	addl	-4(%rbp), %esi
	movl	%esi, -4(%rbp)
	movq	-16(%rbp), %rax
	movl	1204(%rax), %esi
	addl	-4(%rbp), %esi
	movl	%esi, -4(%rbp)
	movq	-16(%rbp), %rax
	movl	1208(%rax), %esi
	addl	-4(%rbp), %esi
	movl	%esi, -4(%rbp)
	movq	-16(%rbp), %rax
	movl	1212(%rax), %esi
	addl	-4(%rbp), %esi
	movl	%esi, -4(%rbp)
	movq	-16(%rbp), %rax
	movl	1216(%rax), %esi
	addl	-4(%rbp), %esi
	movl	%esi, -4(%rbp)
	movq	-16(%rbp), %rax
	movl	1220(%rax), %esi
	addl	-4(%rbp), %esi
	movl	%esi, -4(%rbp)
	movq	-16(%rbp), %rax
	movl	1224(%rax), %esi
	addl	-4(%rbp), %esi
	movl	%esi, -4(%rbp)
	movq	-16(%rbp), %rax
	movl	1228(%rax), %esi
	addl	-4(%rbp), %esi
	movl	%esi, -4(%rbp)
	movq	-16(%rbp), %rax
	movl	1232(%rax), %esi
	addl	-4(%rbp), %esi
	movl	%esi, -4(%rbp)
	movq	-16(%rbp), %rax
	movl	1236(%rax), %esi
	addl	-4(%rbp), %esi
	movl	%esi, -4(%rbp)
	movq	-16(%rbp), %rax
	movl	1240(%rax), %esi
	addl	-4(%rbp), %esi
	movl	%esi, -4(%rbp)
	movq	-16(%rbp), %rax
	movl	1244(%rax), %esi
	addl	-4(%rbp), %esi
	movl	%esi, -4(%rbp)
	movq	-16(%rbp), %rax
	movl	1248(%rax), %esi
	addl	-4(%rbp), %esi
	movl	%esi, -4(%rbp)
	movq	-16(%rbp), %rax
	movl	1252(%rax), %esi
	addl	-4(%rbp), %esi
	movl	%esi, -4(%rbp)
	movq	-16(%rbp), %rax
	movl	1256(%rax), %esi
	addl	-4(%rbp), %esi
	movl	%esi, -4(%rbp)
	movq	-16(%rbp), %rax
	movl	1260(%rax), %esi
	addl	-4(%rbp), %esi
	movl	%esi, -4(%rbp)
	movq	-16(%rbp), %rax
	movl	1264(%rax), %esi
	addl	-4(%rbp), %esi
	movl	%esi, -4(%rbp)
	movq	-16(%rbp), %rax
	movl	1268(%rax), %esi
	addl	-4(%rbp), %esi
	movl	%esi, -4(%rbp)
	movq	-16(%rbp), %rax
	movl	1272(%rax), %esi
	addl	-4(%rbp), %esi
	movl	%esi, -4(%rbp)
	movq	-16(%rbp), %rax
	movl	1276(%rax), %esi
	addl	-4(%rbp), %esi
	movl	%esi, -4(%rbp)
	movq	-16(%rbp), %rax
	movl	1280(%rax), %esi
	addl	-4(%rbp), %esi
	movl	%esi, -4(%rbp)
	movq	-16(%rbp), %rax
	movl	1284(%rax), %esi
	addl	-4(%rbp), %esi
	movl	%esi, -4(%rbp)
	movq	-16(%rbp), %rax
	movl	1288(%rax), %esi
	addl	-4(%rbp), %esi
	movl	%esi, -4(%rbp)
	movq	-16(%rbp), %rax
	movl	1292(%rax), %esi
	addl	-4(%rbp), %esi
	movl	%esi, -4(%rbp)
	movq	-16(%rbp), %rax
	movl	1296(%rax), %esi
	addl	-4(%rbp), %esi
	movl	%esi, -4(%rbp)
	movq	-16(%rbp), %rax
	movl	1300(%rax), %esi
	addl	-4(%rbp), %esi
	movl	%esi, -4(%rbp)
	movq	-16(%rbp), %rax
	movl	1304(%rax), %esi
	addl	-4(%rbp), %esi
	movl	%esi, -4(%rbp)
	movq	-16(%rbp), %rax
	movl	1308(%rax), %esi
	addl	-4(%rbp), %esi
	movl	%esi, -4(%rbp)
	movq	-16(%rbp), %rax
	movl	1312(%rax), %esi
	addl	-4(%rbp), %esi
	movl	%esi, -4(%rbp)
	movq	-16(%rbp), %rax
	movl	1316(%rax), %esi
	addl	-4(%rbp), %esi
	movl	%esi, -4(%rbp)
	movq	-16(%rbp), %rax
	movl	1320(%rax), %esi
	addl	-4(%rbp), %esi
	movl	%esi, -4(%rbp)
	movq	-16(%rbp), %rax
	movl	1324(%rax), %esi
	addl	-4(%rbp), %esi
	movl	%esi, -4(%rbp)
	movq	-16(%rbp), %rax
	movl	1328(%rax), %esi
	addl	-4(%rbp), %esi
	movl	%esi, -4(%rbp)
	movq	-16(%rbp), %rax
	movl	1332(%rax), %esi
	addl	-4(%rbp), %esi
	movl	%esi, -4(%rbp)
	movq	-16(%rbp), %rax
	movl	1336(%rax), %esi
	addl	-4(%rbp), %esi
	movl	%esi, -4(%rbp)
	movq	-16(%rbp), %rax
	movl	1340(%rax), %esi
	addl	-4(%rbp), %esi
	movl	%esi, -4(%rbp)
	movq	-16(%rbp), %rax
	movl	1344(%rax), %esi
	addl	-4(%rbp), %esi
	movl	%esi, -4(%rbp)
	movq	-16(%rbp), %rax
	movl	1348(%rax), %esi
	addl	-4(%rbp), %esi
	movl	%esi, -4(%rbp)
	movq	-16(%rbp), %rax
	movl	1352(%rax), %esi
	addl	-4(%rbp), %esi
	movl	%esi, -4(%rbp)
	movq	-16(%rbp), %rax
	movl	1356(%rax), %esi
	addl	-4(%rbp), %esi
	movl	%esi, -4(%rbp)
	movq	-16(%rbp), %rax
	movl	1360(%rax), %esi
	addl	-4(%rbp), %esi
	movl	%esi, -4(%rbp)
	movq	-16(%rbp), %rax
	movl	1364(%rax), %esi
	addl	-4(%rbp), %esi
	movl	%esi, -4(%rbp)
	movq	-16(%rbp), %rax
	movl	1368(%rax), %esi
	addl	-4(%rbp), %esi
	movl	%esi, -4(%rbp)
	movq	-16(%rbp), %rax
	movl	1372(%rax), %esi
	addl	-4(%rbp), %esi
	movl	%esi, -4(%rbp)
	movq	-16(%rbp), %rax
	movl	1376(%rax), %esi
	addl	-4(%rbp), %esi
	movl	%esi, -4(%rbp)
	movq	-16(%rbp), %rax
	movl	1380(%rax), %esi
	addl	-4(%rbp), %esi
	movl	%esi, -4(%rbp)
	movq	-16(%rbp), %rax
	movl	1384(%rax), %esi
	addl	-4(%rbp), %esi
	movl	%esi, -4(%rbp)
	movq	-16(%rbp), %rax
	movl	1388(%rax), %esi
	addl	-4(%rbp), %esi
	movl	%esi, -4(%rbp)
	movq	-16(%rbp), %rax
	movl	1392(%rax), %esi
	addl	-4(%rbp), %esi
	movl	%esi, -4(%rbp)
	movq	-16(%rbp), %rax
	movl	1396(%rax), %esi
	addl	-4(%rbp), %esi
	movl	%esi, -4(%rbp)
	movq	-16(%rbp), %rax
	movl	1400(%rax), %esi
	addl	-4(%rbp), %esi
	movl	%esi, -4(%rbp)
	movq	-16(%rbp), %rax
	movl	1404(%rax), %esi
	addl	-4(%rbp), %esi
	movl	%esi, -4(%rbp)
	movq	-16(%rbp), %rax
	movl	1408(%rax), %esi
	addl	-4(%rbp), %esi
	movl	%esi, -4(%rbp)
	movq	-16(%rbp), %rax
	movl	1412(%rax), %esi
	addl	-4(%rbp), %esi
	movl	%esi, -4(%rbp)
	movq	-16(%rbp), %rax
	movl	1416(%rax), %esi
	addl	-4(%rbp), %esi
	movl	%esi, -4(%rbp)
	movq	-16(%rbp), %rax
	movl	1420(%rax), %esi
	addl	-4(%rbp), %esi
	movl	%esi, -4(%rbp)
	movq	-16(%rbp), %rax
	movl	1424(%rax), %esi
	addl	-4(%rbp), %esi
	movl	%esi, -4(%rbp)
	movq	-16(%rbp), %rax
	movl	1428(%rax), %esi
	addl	-4(%rbp), %esi
	movl	%esi, -4(%rbp)
	movq	-16(%rbp), %rax
	movl	1432(%rax), %esi
	addl	-4(%rbp), %esi
	movl	%esi, -4(%rbp)
	movq	-16(%rbp), %rax
	movl	1436(%rax), %esi
	addl	-4(%rbp), %esi
	movl	%esi, -4(%rbp)
	movq	-16(%rbp), %rax
	movl	1440(%rax), %esi
	addl	-4(%rbp), %esi
	movl	%esi, -4(%rbp)
	movq	-16(%rbp), %rax
	movl	1444(%rax), %esi
	addl	-4(%rbp), %esi
	movl	%esi, -4(%rbp)
	movq	-16(%rbp), %rax
	movl	1448(%rax), %esi
	addl	-4(%rbp), %esi
	movl	%esi, -4(%rbp)
	movq	-16(%rbp), %rax
	movl	1452(%rax), %esi
	addl	-4(%rbp), %esi
	movl	%esi, -4(%rbp)
	movq	-16(%rbp), %rax
	movl	1456(%rax), %esi
	addl	-4(%rbp), %esi
	movl	%esi, -4(%rbp)
	movq	-16(%rbp), %rax
	movl	1460(%rax), %esi
	addl	-4(%rbp), %esi
	movl	%esi, -4(%rbp)
	movq	-16(%rbp), %rax
	movl	1464(%rax), %esi
	addl	-4(%rbp), %esi
	movl	%esi, -4(%rbp)
	movq	-16(%rbp), %rax
	movl	1468(%rax), %esi
	addl	-4(%rbp), %esi
	movl	%esi, -4(%rbp)
	movq	-16(%rbp), %rax
	movl	1472(%rax), %esi
	addl	-4(%rbp), %esi
	movl	%esi, -4(%rbp)
	movq	-16(%rbp), %rax
	movl	1476(%rax), %esi
	addl	-4(%rbp), %esi
	movl	%esi, -4(%rbp)
	movq	-16(%rbp), %rax
	movl	1480(%rax), %esi
	addl	-4(%rbp), %esi
	movl	%esi, -4(%rbp)
	movq	-16(%rbp), %rax
	movl	1484(%rax), %esi
	addl	-4(%rbp), %esi
	movl	%esi, -4(%rbp)
	movq	-16(%rbp), %rax
	movl	1488(%rax), %esi
	addl	-4(%rbp), %esi
	movl	%esi, -4(%rbp)
	movq	-16(%rbp), %rax
	movl	1492(%rax), %esi
	addl	-4(%rbp), %esi
	movl	%esi, -4(%rbp)
	movq	-16(%rbp), %rax
	movl	1496(%rax), %esi
	addl	-4(%rbp), %esi
	movl	%esi, -4(%rbp)
	movq	-16(%rbp), %rax
	movl	1500(%rax), %esi
	addl	-4(%rbp), %esi
	movl	%esi, -4(%rbp)
	movq	-16(%rbp), %rax
	movl	1504(%rax), %esi
	addl	-4(%rbp), %esi
	movl	%esi, -4(%rbp)
	movq	-16(%rbp), %rax
	movl	1508(%rax), %esi
	addl	-4(%rbp), %esi
	movl	%esi, -4(%rbp)
	movq	-16(%rbp), %rax
	movl	1512(%rax), %esi
	addl	-4(%rbp), %esi
	movl	%esi, -4(%rbp)
	movq	-16(%rbp), %rax
	movl	1516(%rax), %esi
	addl	-4(%rbp), %esi
	movl	%esi, -4(%rbp)
	movq	-16(%rbp), %rax
	movl	1520(%rax), %esi
	addl	-4(%rbp), %esi
	movl	%esi, -4(%rbp)
	movq	-16(%rbp), %rax
	movl	1524(%rax), %esi
	addl	-4(%rbp), %esi
	movl	%esi, -4(%rbp)
	movq	-16(%rbp), %rax
	movl	1528(%rax), %esi
	addl	-4(%rbp), %esi
	movl	%esi, -4(%rbp)
	movq	-16(%rbp), %rax
	movl	1532(%rax), %esi
	addl	-4(%rbp), %esi
	movl	%esi, -4(%rbp)
	movq	-16(%rbp), %rax
	movl	1536(%rax), %esi
	addl	-4(%rbp), %esi
	movl	%esi, -4(%rbp)
	movq	-16(%rbp), %rax
	movl	1540(%rax), %esi
	addl	-4(%rbp), %esi
	movl	%esi, -4(%rbp)
	movq	-16(%rbp), %rax
	movl	1544(%rax), %esi
	addl	-4(%rbp), %esi
	movl	%esi, -4(%rbp)
	movq	-16(%rbp), %rax
	movl	1548(%rax), %esi
	addl	-4(%rbp), %esi
	movl	%esi, -4(%rbp)
	movq	-16(%rbp), %rax
	movl	1552(%rax), %esi
	addl	-4(%rbp), %esi
	movl	%esi, -4(%rbp)
	movq	-16(%rbp), %rax
	movl	1556(%rax), %esi
	addl	-4(%rbp), %esi
	movl	%esi, -4(%rbp)
	movq	-16(%rbp), %rax
	movl	1560(%rax), %esi
	addl	-4(%rbp), %esi
	movl	%esi, -4(%rbp)
	movq	-16(%rbp), %rax
	movl	1564(%rax), %esi
	addl	-4(%rbp), %esi
	movl	%esi, -4(%rbp)
	movq	-16(%rbp), %rax
	movl	1568(%rax), %esi
	addl	-4(%rbp), %esi
	movl	%esi, -4(%rbp)
	movq	-16(%rbp), %rax
	movl	1572(%rax), %esi
	addl	-4(%rbp), %esi
	movl	%esi, -4(%rbp)
	movq	-16(%rbp), %rax
	movl	1576(%rax), %esi
	addl	-4(%rbp), %esi
	movl	%esi, -4(%rbp)
	movq	-16(%rbp), %rax
	movl	1580(%rax), %esi
	addl	-4(%rbp), %esi
	movl	%esi, -4(%rbp)
	movq	-16(%rbp), %rax
	movl	1584(%rax), %esi
	addl	-4(%rbp), %esi
	movl	%esi, -4(%rbp)
	movq	-16(%rbp), %rax
	movl	1588(%rax), %esi
	addl	-4(%rbp), %esi
	movl	%esi, -4(%rbp)
	movq	-16(%rbp), %rax
	movl	1592(%rax), %esi
	addl	-4(%rbp), %esi
	movl	%esi, -4(%rbp)
	movq	-16(%rbp), %rax
	movl	1596(%rax), %esi
	addl	-4(%rbp), %esi
	movl	%esi, -4(%rbp)
	movq	-16(%rbp), %rax
	movl	1600(%rax), %esi
	addl	-4(%rbp), %esi
	movl	%esi, -4(%rbp)
	movq	-16(%rbp), %rax
	movl	1604(%rax), %esi
	addl	-4(%rbp), %esi
	movl	%esi, -4(%rbp)
	movq	-16(%rbp), %rax
	movl	1608(%rax), %esi
	addl	-4(%rbp), %esi
	movl	%esi, -4(%rbp)
	movq	-16(%rbp), %rax
	movl	1612(%rax), %esi
	addl	-4(%rbp), %esi
	movl	%esi, -4(%rbp)
	movq	-16(%rbp), %rax
	movl	1616(%rax), %esi
	addl	-4(%rbp), %esi
	movl	%esi, -4(%rbp)
	movq	-16(%rbp), %rax
	movl	1620(%rax), %esi
	addl	-4(%rbp), %esi
	movl	%esi, -4(%rbp)
	movq	-16(%rbp), %rax
	movl	1624(%rax), %esi
	addl	-4(%rbp), %esi
	movl	%esi, -4(%rbp)
	movq	-16(%rbp), %rax
	movl	1628(%rax), %esi
	addl	-4(%rbp), %esi
	movl	%esi, -4(%rbp)
	movq	-16(%rbp), %rax
	movl	1632(%rax), %esi
	addl	-4(%rbp), %esi
	movl	%esi, -4(%rbp)
	movq	-16(%rbp), %rax
	movl	1636(%rax), %esi
	addl	-4(%rbp), %esi
	movl	%esi, -4(%rbp)
	movq	-16(%rbp), %rax
	movl	1640(%rax), %esi
	addl	-4(%rbp), %esi
	movl	%esi, -4(%rbp)
	movq	-16(%rbp), %rax
	movl	1644(%rax), %esi
	addl	-4(%rbp), %esi
	movl	%esi, -4(%rbp)
	movq	-16(%rbp), %rax
	movl	1648(%rax), %esi
	addl	-4(%rbp), %esi
	movl	%esi, -4(%rbp)
	movq	-16(%rbp), %rax
	movl	1652(%rax), %esi
	addl	-4(%rbp), %esi
	movl	%esi, -4(%rbp)
	movq	-16(%rbp), %rax
	movl	1656(%rax), %esi
	addl	-4(%rbp), %esi
	movl	%esi, -4(%rbp)
	movq	-16(%rbp), %rax
	movl	1660(%rax), %esi
	addl	-4(%rbp), %esi
	movl	%esi, -4(%rbp)
	movq	-16(%rbp), %rax
	movl	1664(%rax), %esi
	addl	-4(%rbp), %esi
	movl	%esi, -4(%rbp)
	movq	-16(%rbp), %rax
	movl	1668(%rax), %esi
	addl	-4(%rbp), %esi
	movl	%esi, -4(%rbp)
	movq	-16(%rbp), %rax
	movl	1672(%rax), %esi
	addl	-4(%rbp), %esi
	movl	%esi, -4(%rbp)
	movq	-16(%rbp), %rax
	movl	1676(%rax), %esi
	addl	-4(%rbp), %esi
	movl	%esi, -4(%rbp)
	movq	-16(%rbp), %rax
	movl	1680(%rax), %esi
	addl	-4(%rbp), %esi
	movl	%esi, -4(%rbp)
	movq	-16(%rbp), %rax
	movl	1684(%rax), %esi
	addl	-4(%rbp), %esi
	movl	%esi, -4(%rbp)
	movq	-16(%rbp), %rax
	movl	1688(%rax), %esi
	addl	-4(%rbp), %esi
	movl	%esi, -4(%rbp)
	movq	-16(%rbp), %rax
	movl	1692(%rax), %esi
	addl	-4(%rbp), %esi
	movl	%esi, -4(%rbp)
	movq	-16(%rbp), %rax
	movl	1696(%rax), %esi
	addl	-4(%rbp), %esi
	movl	%esi, -4(%rbp)
	movq	-16(%rbp), %rax
	movl	1700(%rax), %esi
	addl	-4(%rbp), %esi
	movl	%esi, -4(%rbp)
	movq	-16(%rbp), %rax
	movl	1704(%rax), %esi
	addl	-4(%rbp), %esi
	movl	%esi, -4(%rbp)
	movq	-16(%rbp), %rax
	movl	1708(%rax), %esi
	addl	-4(%rbp), %esi
	movl	%esi, -4(%rbp)
	movq	-16(%rbp), %rax
	movl	1712(%rax), %esi
	addl	-4(%rbp), %esi
	movl	%esi, -4(%rbp)
	movq	-16(%rbp), %rax
	movl	1716(%rax), %esi
	addl	-4(%rbp), %esi
	movl	%esi, -4(%rbp)
	movq	-16(%rbp), %rax
	movl	1720(%rax), %esi
	addl	-4(%rbp), %esi
	movl	%esi, -4(%rbp)
	movq	-16(%rbp), %rax
	movl	1724(%rax), %esi
	addl	-4(%rbp), %esi
	movl	%esi, -4(%rbp)
	movq	-16(%rbp), %rax
	movl	1728(%rax), %esi
	addl	-4(%rbp), %esi
	movl	%esi, -4(%rbp)
	movq	-16(%rbp), %rax
	movl	1732(%rax), %esi
	addl	-4(%rbp), %esi
	movl	%esi, -4(%rbp)
	movq	-16(%rbp), %rax
	movl	1736(%rax), %esi
	addl	-4(%rbp), %esi
	movl	%esi, -4(%rbp)
	movq	-16(%rbp), %rax
	movl	1740(%rax), %esi
	addl	-4(%rbp), %esi
	movl	%esi, -4(%rbp)
	movq	-16(%rbp), %rax
	movl	1744(%rax), %esi
	addl	-4(%rbp), %esi
	movl	%esi, -4(%rbp)
	movq	-16(%rbp), %rax
	movl	1748(%rax), %esi
	addl	-4(%rbp), %esi
	movl	%esi, -4(%rbp)
	movq	-16(%rbp), %rax
	movl	1752(%rax), %esi
	addl	-4(%rbp), %esi
	movl	%esi, -4(%rbp)
	movq	-16(%rbp), %rax
	movl	1756(%rax), %esi
	addl	-4(%rbp), %esi
	movl	%esi, -4(%rbp)
	movq	-16(%rbp), %rax
	movl	1760(%rax), %esi
	addl	-4(%rbp), %esi
	movl	%esi, -4(%rbp)
	movq	-16(%rbp), %rax
	movl	1764(%rax), %esi
	addl	-4(%rbp), %esi
	movl	%esi, -4(%rbp)
	movq	-16(%rbp), %rax
	movl	1768(%rax), %esi
	addl	-4(%rbp), %esi
	movl	%esi, -4(%rbp)
	movq	-16(%rbp), %rax
	movl	1772(%rax), %esi
	addl	-4(%rbp), %esi
	movl	%esi, -4(%rbp)
	movq	-16(%rbp), %rax
	movl	1776(%rax), %esi
	addl	-4(%rbp), %esi
	movl	%esi, -4(%rbp)
	movq	-16(%rbp), %rax
	movl	1780(%rax), %esi
	addl	-4(%rbp), %esi
	movl	%esi, -4(%rbp)
	movq	-16(%rbp), %rax
	movl	1784(%rax), %esi
	addl	-4(%rbp), %esi
	movl	%esi, -4(%rbp)
	movq	-16(%rbp), %rax
	movl	1788(%rax), %esi
	addl	-4(%rbp), %esi
	movl	%esi, -4(%rbp)
	movq	-16(%rbp), %rax
	movl	1792(%rax), %esi
	addl	-4(%rbp), %esi
	movl	%esi, -4(%rbp)
	movq	-16(%rbp), %rax
	movl	1796(%rax), %esi
	addl	-4(%rbp), %esi
	movl	%esi, -4(%rbp)
	movq	-16(%rbp), %rax
	movl	1800(%rax), %esi
	addl	-4(%rbp), %esi
	movl	%esi, -4(%rbp)
	movq	-16(%rbp), %rax
	movl	1804(%rax), %esi
	addl	-4(%rbp), %esi
	movl	%esi, -4(%rbp)
	movq	-16(%rbp), %rax
	movl	1808(%rax), %esi
	addl	-4(%rbp), %esi
	movl	%esi, -4(%rbp)
	movq	-16(%rbp), %rax
	movl	1812(%rax), %esi
	addl	-4(%rbp), %esi
	movl	%esi, -4(%rbp)
	movq	-16(%rbp), %rax
	movl	1816(%rax), %esi
	addl	-4(%rbp), %esi
	movl	%esi, -4(%rbp)
	movq	-16(%rbp), %rax
	movl	1820(%rax), %esi
	addl	-4(%rbp), %esi
	movl	%esi, -4(%rbp)
	movq	-16(%rbp), %rax
	movl	1824(%rax), %esi
	addl	-4(%rbp), %esi
	movl	%esi, -4(%rbp)
	movq	-16(%rbp), %rax
	movl	1828(%rax), %esi
	addl	-4(%rbp), %esi
	movl	%esi, -4(%rbp)
	movq	-16(%rbp), %rax
	movl	1832(%rax), %esi
	addl	-4(%rbp), %esi
	movl	%esi, -4(%rbp)
	movq	-16(%rbp), %rax
	movl	1836(%rax), %esi
	addl	-4(%rbp), %esi
	movl	%esi, -4(%rbp)
	movq	-16(%rbp), %rax
	movl	1840(%rax), %esi
	addl	-4(%rbp), %esi
	movl	%esi, -4(%rbp)
	movq	-16(%rbp), %rax
	movl	1844(%rax), %esi
	addl	-4(%rbp), %esi
	movl	%esi, -4(%rbp)
	movq	-16(%rbp), %rax
	movl	1848(%rax), %esi
	addl	-4(%rbp), %esi
	movl	%esi, -4(%rbp)
	movq	-16(%rbp), %rax
	movl	1852(%rax), %esi
	addl	-4(%rbp), %esi
	movl	%esi, -4(%rbp)
	movq	-16(%rbp), %rax
	movl	1856(%rax), %esi
	addl	-4(%rbp), %esi
	movl	%esi, -4(%rbp)
	movq	-16(%rbp), %rax
	movl	1860(%rax), %esi
	addl	-4(%rbp), %esi
	movl	%esi, -4(%rbp)
	movq	-16(%rbp), %rax
	movl	1864(%rax), %esi
	addl	-4(%rbp), %esi
	movl	%esi, -4(%rbp)
	movq	-16(%rbp), %rax
	movl	1868(%rax), %esi
	addl	-4(%rbp), %esi
	movl	%esi, -4(%rbp)
	movq	-16(%rbp), %rax
	movl	1872(%rax), %esi
	addl	-4(%rbp), %esi
	movl	%esi, -4(%rbp)
	movq	-16(%rbp), %rax
	movl	1876(%rax), %esi
	addl	-4(%rbp), %esi
	movl	%esi, -4(%rbp)
	movq	-16(%rbp), %rax
	movl	1880(%rax), %esi
	addl	-4(%rbp), %esi
	movl	%esi, -4(%rbp)
	movq	-16(%rbp), %rax
	movl	1884(%rax), %esi
	addl	-4(%rbp), %esi
	movl	%esi, -4(%rbp)
	movq	-16(%rbp), %rax
	movl	1888(%rax), %esi
	addl	-4(%rbp), %esi
	movl	%esi, -4(%rbp)
	movq	-16(%rbp), %rax
	movl	1892(%rax), %esi
	addl	-4(%rbp), %esi
	movl	%esi, -4(%rbp)
	movq	-16(%rbp), %rax
	movl	1896(%rax), %esi
	addl	-4(%rbp), %esi
	movl	%esi, -4(%rbp)
	movq	-16(%rbp), %rax
	movl	1900(%rax), %esi
	addl	-4(%rbp), %esi
	movl	%esi, -4(%rbp)
	movq	-16(%rbp), %rax
	movl	1904(%rax), %esi
	addl	-4(%rbp), %esi
	movl	%esi, -4(%rbp)
	movq	-16(%rbp), %rax
	movl	1908(%rax), %esi
	addl	-4(%rbp), %esi
	movl	%esi, -4(%rbp)
	movq	-16(%rbp), %rax
	movl	1912(%rax), %esi
	addl	-4(%rbp), %esi
	movl	%esi, -4(%rbp)
	movq	-16(%rbp), %rax
	movl	1916(%rax), %esi
	addl	-4(%rbp), %esi
	movl	%esi, -4(%rbp)
	movq	-16(%rbp), %rax
	movl	1920(%rax), %esi
	addl	-4(%rbp), %esi
	movl	%esi, -4(%rbp)
	movq	-16(%rbp), %rax
	movl	1924(%rax), %esi
	addl	-4(%rbp), %esi
	movl	%esi, -4(%rbp)
	movq	-16(%rbp), %rax
	movl	1928(%rax), %esi
	addl	-4(%rbp), %esi
	movl	%esi, -4(%rbp)
	movq	-16(%rbp), %rax
	movl	1932(%rax), %esi
	addl	-4(%rbp), %esi
	movl	%esi, -4(%rbp)
	movq	-16(%rbp), %rax
	movl	1936(%rax), %esi
	addl	-4(%rbp), %esi
	movl	%esi, -4(%rbp)
	movq	-16(%rbp), %rax
	movl	1940(%rax), %esi
	addl	-4(%rbp), %esi
	movl	%esi, -4(%rbp)
	movq	-16(%rbp), %rax
	movl	1944(%rax), %esi
	addl	-4(%rbp), %esi
	movl	%esi, -4(%rbp)
	movq	-16(%rbp), %rax
	movl	1948(%rax), %esi
	addl	-4(%rbp), %esi
	movl	%esi, -4(%rbp)
	movq	-16(%rbp), %rax
	movl	1952(%rax), %esi
	addl	-4(%rbp), %esi
	movl	%esi, -4(%rbp)
	movq	-16(%rbp), %rax
	movl	1956(%rax), %esi
	addl	-4(%rbp), %esi
	movl	%esi, -4(%rbp)
	movq	-16(%rbp), %rax
	movl	1960(%rax), %esi
	addl	-4(%rbp), %esi
	movl	%esi, -4(%rbp)
	movq	-16(%rbp), %rax
	movl	1964(%rax), %esi
	addl	-4(%rbp), %esi
	movl	%esi, -4(%rbp)
	movq	-16(%rbp), %rax
	movl	1968(%rax), %esi
	addl	-4(%rbp), %esi
	movl	%esi, -4(%rbp)
	movq	-16(%rbp), %rax
	movl	1972(%rax), %esi
	addl	-4(%rbp), %esi
	movl	%esi, -4(%rbp)
	movq	-16(%rbp), %rax
	movl	1976(%rax), %esi
	addl	-4(%rbp), %esi
	movl	%esi, -4(%rbp)
	movq	-16(%rbp), %rax
	movl	1980(%rax), %esi
	addl	-4(%rbp), %esi
	movl	%esi, -4(%rbp)
	movq	-16(%rbp), %rax
	movl	1984(%rax), %esi
	addl	-4(%rbp), %esi
	movl	%esi, -4(%rbp)
	movq	-16(%rbp), %rax
	movl	1988(%rax), %esi
	addl	-4(%rbp), %esi
	movl	%esi, -4(%rbp)
	movq	-16(%rbp), %rax
	movl	1992(%rax), %esi
	addl	-4(%rbp), %esi
	movl	%esi, -4(%rbp)
	movq	-16(%rbp), %rax
	movl	1996(%rax), %esi
	addl	-4(%rbp), %esi
	movl	%esi, -4(%rbp)
	movq	-16(%rbp), %rax
	movl	2000(%rax), %esi
	addl	-4(%rbp), %esi
	movl	%esi, -4(%rbp)
	movq	-16(%rbp), %rax
	movl	2004(%rax), %esi
	addl	-4(%rbp), %esi
	movl	%esi, -4(%rbp)
	movq	-16(%rbp), %rax
	movl	2008(%rax), %esi
	addl	-4(%rbp), %esi
	movl	%esi, -4(%rbp)
	movq	-16(%rbp), %rax
	movl	2012(%rax), %esi
	addl	-4(%rbp), %esi
	movl	%esi, -4(%rbp)
	movq	-16(%rbp), %rax
	movl	2016(%rax), %esi
	addl	-4(%rbp), %esi
	movl	%esi, -4(%rbp)
	movq	-16(%rbp), %rax
	movl	2020(%rax), %esi
	addl	-4(%rbp), %esi
	movl	%esi, -4(%rbp)
	movq	-16(%rbp), %rax
	movl	2024(%rax), %esi
	addl	-4(%rbp), %esi
	movl	%esi, -4(%rbp)
	movq	-16(%rbp), %rax
	movl	2028(%rax), %esi
	addl	-4(%rbp), %esi
	movl	%esi, -4(%rbp)
	movq	-16(%rbp), %rax
	movl	2032(%rax), %esi
	addl	-4(%rbp), %esi
	movl	%esi, -4(%rbp)
	movq	-16(%rbp), %rax
	movl	2036(%rax), %esi
	addl	-4(%rbp), %esi
	movl	%esi, -4(%rbp)
	movq	-16(%rbp), %rax
	movl	2040(%rax), %esi
	addl	-4(%rbp), %esi
	movl	%esi, -4(%rbp)
	movq	-16(%rbp), %rax
	movl	2044(%rax), %esi
	addl	-4(%rbp), %esi
	movl	%esi, -4(%rbp)
	movq	-16(%rbp), %rax
	movl	2048(%rax), %esi
	addl	-4(%rbp), %esi
	movl	%esi, -4(%rbp)
	movq	-16(%rbp), %rax
	movl	2052(%rax), %esi
	addl	-4(%rbp), %esi
	movl	%esi, -4(%rbp)
	movq	-16(%rbp), %rax
	movl	2056(%rax), %esi
	addl	-4(%rbp), %esi
	movl	%esi, -4(%rbp)
	movq	-16(%rbp), %rax
	movl	2060(%rax), %esi
	addl	-4(%rbp), %esi
	movl	%esi, -4(%rbp)
	movq	-16(%rbp), %rax
	movl	2064(%rax), %esi
	addl	-4(%rbp), %esi
	movl	%esi, -4(%rbp)
	movq	-16(%rbp), %rax
	movl	2068(%rax), %esi
	addl	-4(%rbp), %esi
	movl	%esi, -4(%rbp)
	movq	-16(%rbp), %rax
	movl	2072(%rax), %esi
	addl	-4(%rbp), %esi
	movl	%esi, -4(%rbp)
	movq	-16(%rbp), %rax
	movl	2076(%rax), %esi
	addl	-4(%rbp), %esi
	movl	%esi, -4(%rbp)
	movq	-16(%rbp), %rax
	movl	2080(%rax), %esi
	addl	-4(%rbp), %esi
	movl	%esi, -4(%rbp)
	movq	-16(%rbp), %rax
	movl	2084(%rax), %esi
	addl	-4(%rbp), %esi
	movl	%esi, -4(%rbp)
	movq	-16(%rbp), %rax
	movl	2088(%rax), %esi
	addl	-4(%rbp), %esi
	movl	%esi, -4(%rbp)
	movq	-16(%rbp), %rax
	movl	2092(%rax), %esi
	addl	-4(%rbp), %esi
	movl	%esi, -4(%rbp)
	movq	-16(%rbp), %rax
	movl	2096(%rax), %esi
	addl	-4(%rbp), %esi
	movl	%esi, -4(%rbp)
	movq	-16(%rbp), %rax
	movl	2100(%rax), %esi
	addl	-4(%rbp), %esi
	movl	%esi, -4(%rbp)
	movq	-16(%rbp), %rax
	movl	2104(%rax), %esi
	addl	-4(%rbp), %esi
	movl	%esi, -4(%rbp)
	movq	-16(%rbp), %rax
	movl	2108(%rax), %esi
	addl	-4(%rbp), %esi
	movl	%esi, -4(%rbp)
	movq	-16(%rbp), %rax
	movl	2112(%rax), %esi
	addl	-4(%rbp), %esi
	movl	%esi, -4(%rbp)
	movq	-16(%rbp), %rax
	movl	2116(%rax), %esi
	addl	-4(%rbp), %esi
	movl	%esi, -4(%rbp)
	movq	-16(%rbp), %rax
	movl	2120(%rax), %esi
	addl	-4(%rbp), %esi
	movl	%esi, -4(%rbp)
	movq	-16(%rbp), %rax
	movl	2124(%rax), %esi
	addl	-4(%rbp), %esi
	movl	%esi, -4(%rbp)
	movq	-16(%rbp), %rax
	movl	2128(%rax), %esi
	addl	-4(%rbp), %esi
	movl	%esi, -4(%rbp)
	movq	-16(%rbp), %rax
	movl	2132(%rax), %esi
	addl	-4(%rbp), %esi
	movl	%esi, -4(%rbp)
	movq	-16(%rbp), %rax
	movl	2136(%rax), %esi
	addl	-4(%rbp), %esi
	movl	%esi, -4(%rbp)
	movq	-16(%rbp), %rax
	movl	2140(%rax), %esi
	addl	-4(%rbp), %esi
	movl	%esi, -4(%rbp)
	movq	-16(%rbp), %rax
	movl	2144(%rax), %esi
	addl	-4(%rbp), %esi
	movl	%esi, -4(%rbp)
	movq	-16(%rbp), %rax
	movl	2148(%rax), %esi
	addl	-4(%rbp), %esi
	movl	%esi, -4(%rbp)
	movq	-16(%rbp), %rax
	movl	2152(%rax), %esi
	addl	-4(%rbp), %esi
	movl	%esi, -4(%rbp)
	movq	-16(%rbp), %rax
	movl	2156(%rax), %esi
	addl	-4(%rbp), %esi
	movl	%esi, -4(%rbp)
	movq	-16(%rbp), %rax
	movl	2160(%rax), %esi
	addl	-4(%rbp), %esi
	movl	%esi, -4(%rbp)
	movq	-16(%rbp), %rax
	movl	2164(%rax), %esi
	addl	-4(%rbp), %esi
	movl	%esi, -4(%rbp)
	movq	-16(%rbp), %rax
	movl	2168(%rax), %esi
	addl	-4(%rbp), %esi
	movl	%esi, -4(%rbp)
	movq	-16(%rbp), %rax
	movl	2172(%rax), %esi
	addl	-4(%rbp), %esi
	movl	%esi, -4(%rbp)
	movq	-16(%rbp), %rax
	movl	2176(%rax), %esi
	addl	-4(%rbp), %esi
	movl	%esi, -4(%rbp)
	movq	-16(%rbp), %rax
	movl	2180(%rax), %esi
	addl	-4(%rbp), %esi
	movl	%esi, -4(%rbp)
	movq	-16(%rbp), %rax
	movl	2184(%rax), %esi
	addl	-4(%rbp), %esi
	movl	%esi, -4(%rbp)
	movq	-16(%rbp), %rax
	movl	2188(%rax), %esi
	addl	-4(%rbp), %esi
	movl	%esi, -4(%rbp)
	movq	-16(%rbp), %rax
	movl	2192(%rax), %esi
	addl	-4(%rbp), %esi
	movl	%esi, -4(%rbp)
	movq	-16(%rbp), %rax
	movl	2196(%rax), %esi
	addl	-4(%rbp), %esi
	movl	%esi, -4(%rbp)
	movq	-16(%rbp), %rax
	movl	2200(%rax), %esi
	addl	-4(%rbp), %esi
	movl	%esi, -4(%rbp)
	movq	-16(%rbp), %rax
	movl	2204(%rax), %esi
	addl	-4(%rbp), %esi
	movl	%esi, -4(%rbp)
	movq	-16(%rbp), %rax
	movl	2208(%rax), %esi
	addl	-4(%rbp), %esi
	movl	%esi, -4(%rbp)
	movq	-16(%rbp), %rax
	movl	2212(%rax), %esi
	addl	-4(%rbp), %esi
	movl	%esi, -4(%rbp)
	movq	-16(%rbp), %rax
	movl	2216(%rax), %esi
	addl	-4(%rbp), %esi
	movl	%esi, -4(%rbp)
	movq	-16(%rbp), %rax
	movl	2220(%rax), %esi
	addl	-4(%rbp), %esi
	movl	%esi, -4(%rbp)
	movq	-16(%rbp), %rax
	movl	2224(%rax), %esi
	addl	-4(%rbp), %esi
	movl	%esi, -4(%rbp)
	movq	-16(%rbp), %rax
	movl	2228(%rax), %esi
	addl	-4(%rbp), %esi
	movl	%esi, -4(%rbp)
	movq	-16(%rbp), %rax
	movl	2232(%rax), %esi
	addl	-4(%rbp), %esi
	movl	%esi, -4(%rbp)
	movq	-16(%rbp), %rax
	movl	2236(%rax), %esi
	addl	-4(%rbp), %esi
	movl	%esi, -4(%rbp)
	movq	-16(%rbp), %rax
	movl	2240(%rax), %esi
	addl	-4(%rbp), %esi
	movl	%esi, -4(%rbp)
	movq	-16(%rbp), %rax
	movl	2244(%rax), %esi
	addl	-4(%rbp), %esi
	movl	%esi, -4(%rbp)
	movq	-16(%rbp), %rax
	movl	2248(%rax), %esi
	addl	-4(%rbp), %esi
	movl	%esi, -4(%rbp)
	movq	-16(%rbp), %rax
	movl	2252(%rax), %esi
	addl	-4(%rbp), %esi
	movl	%esi, -4(%rbp)
	movq	-16(%rbp), %rax
	movl	2256(%rax), %esi
	addl	-4(%rbp), %esi
	movl	%esi, -4(%rbp)
	movq	-16(%rbp), %rax
	movl	2260(%rax), %esi
	addl	-4(%rbp), %esi
	movl	%esi, -4(%rbp)
	movq	-16(%rbp), %rax
	movl	2264(%rax), %esi
	addl	-4(%rbp), %esi
	movl	%esi, -4(%rbp)
	movq	-16(%rbp), %rax
	movl	2268(%rax), %esi
	addl	-4(%rbp), %esi
	movl	%esi, -4(%rbp)
	movq	-16(%rbp), %rax
	movl	2272(%rax), %esi
	addl	-4(%rbp), %esi
	movl	%esi, -4(%rbp)
	movq	-16(%rbp), %rax
	movl	2276(%rax), %esi
	addl	-4(%rbp), %esi
	movl	%esi, -4(%rbp)
	movq	-16(%rbp), %rax
	movl	2280(%rax), %esi
	addl	-4(%rbp), %esi
	movl	%esi, -4(%rbp)
	movq	-16(%rbp), %rax
	movl	2284(%rax), %esi
	addl	-4(%rbp), %esi
	movl	%esi, -4(%rbp)
	movq	-16(%rbp), %rax
	movl	2288(%rax), %esi
	addl	-4(%rbp), %esi
	movl	%esi, -4(%rbp)
	movq	-16(%rbp), %rax
	movl	2292(%rax), %esi
	addl	-4(%rbp), %esi
	movl	%esi, -4(%rbp)
	movq	-16(%rbp), %rax
	movl	2296(%rax), %esi
	addl	-4(%rbp), %esi
	movl	%esi, -4(%rbp)
	movq	-16(%rbp), %rax
	movl	2300(%rax), %esi
	addl	-4(%rbp), %esi
	movl	%esi, -4(%rbp)
	movq	-16(%rbp), %rax
	movl	2304(%rax), %esi
	addl	-4(%rbp), %esi
	movl	%esi, -4(%rbp)
	movq	-16(%rbp), %rax
	movl	2308(%rax), %esi
	addl	-4(%rbp), %esi
	movl	%esi, -4(%rbp)
	movq	-16(%rbp), %rax
	movl	2312(%rax), %esi
	addl	-4(%rbp), %esi
	movl	%esi, -4(%rbp)
	movq	-16(%rbp), %rax
	movl	2316(%rax), %esi
	addl	-4(%rbp), %esi
	movl	%esi, -4(%rbp)
	movq	-16(%rbp), %rax
	movl	2320(%rax), %esi
	addl	-4(%rbp), %esi
	movl	%esi, -4(%rbp)
	movq	-16(%rbp), %rax
	movl	2324(%rax), %esi
	addl	-4(%rbp), %esi
	movl	%esi, -4(%rbp)
	movq	-16(%rbp), %rax
	movl	2328(%rax), %esi
	addl	-4(%rbp), %esi
	movl	%esi, -4(%rbp)
	movq	-16(%rbp), %rax
	movl	2332(%rax), %esi
	addl	-4(%rbp), %esi
	movl	%esi, -4(%rbp)
	movq	-16(%rbp), %rax
	movl	2336(%rax), %esi
	addl	-4(%rbp), %esi
	movl	%esi, -4(%rbp)
	movq	-16(%rbp), %rax
	movl	2340(%rax), %esi
	addl	-4(%rbp), %esi
	movl	%esi, -4(%rbp)
	movq	-16(%rbp), %rax
	movl	2344(%rax), %esi
	addl	-4(%rbp), %esi
	movl	%esi, -4(%rbp)
	movq	-16(%rbp), %rax
	movl	2348(%rax), %esi
	addl	-4(%rbp), %esi
	movl	%esi, -4(%rbp)
	movq	-16(%rbp), %rax
	movl	2352(%rax), %esi
	addl	-4(%rbp), %esi
	movl	%esi, -4(%rbp)
	movq	-16(%rbp), %rax
	movl	2356(%rax), %esi
	addl	-4(%rbp), %esi
	movl	%esi, -4(%rbp)
	movq	-16(%rbp), %rax
	movl	2360(%rax), %esi
	addl	-4(%rbp), %esi
	movl	%esi, -4(%rbp)
	movq	-16(%rbp), %rax
	movl	2364(%rax), %esi
	addl	-4(%rbp), %esi
	movl	%esi, -4(%rbp)
	movq	-16(%rbp), %rax
	movl	2368(%rax), %esi
	addl	-4(%rbp), %esi
	movl	%esi, -4(%rbp)
	movq	-16(%rbp), %rax
	movl	2372(%rax), %esi
	addl	-4(%rbp), %esi
	movl	%esi, -4(%rbp)
	movq	-16(%rbp), %rax
	movl	2376(%rax), %esi
	addl	-4(%rbp), %esi
	movl	%esi, -4(%rbp)
	movq	-16(%rbp), %rax
	movl	2380(%rax), %esi
	addl	-4(%rbp), %esi
	movl	%esi, -4(%rbp)
	movq	-16(%rbp), %rax
	movl	2384(%rax), %esi
	addl	-4(%rbp), %esi
	movl	%esi, -4(%rbp)
	movq	-16(%rbp), %rax
	movl	2388(%rax), %esi
	addl	-4(%rbp), %esi
	movl	%esi, -4(%rbp)
	movq	-16(%rbp), %rax
	movl	2392(%rax), %esi
	addl	-4(%rbp), %esi
	movl	%esi, -4(%rbp)
	movq	-16(%rbp), %rax
	movl	2396(%rax), %esi
	addl	-4(%rbp), %esi
	movl	%esi, -4(%rbp)
	movq	-16(%rbp), %rax
	movl	2400(%rax), %esi
	addl	-4(%rbp), %esi
	movl	%esi, -4(%rbp)
	movq	-16(%rbp), %rax
	movl	2404(%rax), %esi
	addl	-4(%rbp), %esi
	movl	%esi, -4(%rbp)
	movq	-16(%rbp), %rax
	movl	2408(%rax), %esi
	addl	-4(%rbp), %esi
	movl	%esi, -4(%rbp)
	movq	-16(%rbp), %rax
	movl	2412(%rax), %esi
	addl	-4(%rbp), %esi
	movl	%esi, -4(%rbp)
	movq	-16(%rbp), %rax
	movl	2416(%rax), %esi
	addl	-4(%rbp), %esi
	movl	%esi, -4(%rbp)
	movq	-16(%rbp), %rax
	movl	2420(%rax), %esi
	addl	-4(%rbp), %esi
	movl	%esi, -4(%rbp)
	movq	-16(%rbp), %rax
	movl	2424(%rax), %esi
	addl	-4(%rbp), %esi
	movl	%esi, -4(%rbp)
	movq	-16(%rbp), %rax
	movl	2428(%rax), %esi
	addl	-4(%rbp), %esi
	movl	%esi, -4(%rbp)
	movq	-16(%rbp), %rax
	movl	2432(%rax), %esi
	addl	-4(%rbp), %esi
	movl	%esi, -4(%rbp)
	movq	-16(%rbp), %rax
	movl	2436(%rax), %esi
	addl	-4(%rbp), %esi
	movl	%esi, -4(%rbp)
	movq	-16(%rbp), %rax
	movl	2440(%rax), %esi
	addl	-4(%rbp), %esi
	movl	%esi, -4(%rbp)
	movq	-16(%rbp), %rax
	movl	2444(%rax), %esi
	addl	-4(%rbp), %esi
	movl	%esi, -4(%rbp)
	movq	-16(%rbp), %rax
	movl	2448(%rax), %esi
	addl	-4(%rbp), %esi
	movl	%esi, -4(%rbp)
	movq	-16(%rbp), %rax
	movl	2452(%rax), %esi
	addl	-4(%rbp), %esi
	movl	%esi, -4(%rbp)
	movq	-16(%rbp), %rax
	movl	2456(%rax), %esi
	addl	-4(%rbp), %esi
	movl	%esi, -4(%rbp)
	movq	-16(%rbp), %rax
	movl	2460(%rax), %esi
	addl	-4(%rbp), %esi
	movl	%esi, -4(%rbp)
	movq	-16(%rbp), %rax
	movl	2464(%rax), %esi
	addl	-4(%rbp), %esi
	movl	%esi, -4(%rbp)
	movq	-16(%rbp), %rax
	movl	2468(%rax), %esi
	addl	-4(%rbp), %esi
	movl	%esi, -4(%rbp)
	movq	-16(%rbp), %rax
	movl	2472(%rax), %esi
	addl	-4(%rbp), %esi
	movl	%esi, -4(%rbp)
	movq	-16(%rbp), %rax
	movl	2476(%rax), %esi
	addl	-4(%rbp), %esi
	movl	%esi, -4(%rbp)
	movq	-16(%rbp), %rax
	movl	2480(%rax), %esi
	addl	-4(%rbp), %esi
	movl	%esi, -4(%rbp)
	movq	-16(%rbp), %rax
	movl	2484(%rax), %esi
	addl	-4(%rbp), %esi
	movl	%esi, -4(%rbp)
	movq	-16(%rbp), %rax
	movl	2488(%rax), %esi
	addl	-4(%rbp), %esi
	movl	%esi, -4(%rbp)
	movq	-16(%rbp), %rax
	movl	2492(%rax), %esi
	addl	-4(%rbp), %esi
	movl	%esi, -4(%rbp)
	movq	-16(%rbp), %rax
	movl	2496(%rax), %esi
	addl	-4(%rbp), %esi
	movl	%esi, -4(%rbp)
	movq	-16(%rbp), %rax
	movl	2500(%rax), %esi
	addl	-4(%rbp), %esi
	movl	%esi, -4(%rbp)
	movq	-16(%rbp), %rax
	movl	2504(%rax), %esi
	addl	-4(%rbp), %esi
	movl	%esi, -4(%rbp)
	movq	-16(%rbp), %rax
	movl	2508(%rax), %esi
	addl	-4(%rbp), %esi
	movl	%esi, -4(%rbp)
	movq	-16(%rbp), %rax
	movl	2512(%rax), %esi
	addl	-4(%rbp), %esi
	movl	%esi, -4(%rbp)
	movq	-16(%rbp), %rax
	movl	2516(%rax), %esi
	addl	-4(%rbp), %esi
	movl	%esi, -4(%rbp)
	movq	-16(%rbp), %rax
	movl	2520(%rax), %esi
	addl	-4(%rbp), %esi
	movl	%esi, -4(%rbp)
	movq	-16(%rbp), %rax
	movl	2524(%rax), %esi
	addl	-4(%rbp), %esi
	movl	%esi, -4(%rbp)
	movq	-16(%rbp), %rax
	movl	2528(%rax), %esi
	addl	-4(%rbp), %esi
	movl	%esi, -4(%rbp)
	movq	-16(%rbp), %rax
	movl	2532(%rax), %esi
	addl	-4(%rbp), %esi
	movl	%esi, -4(%rbp)
	movq	-16(%rbp), %rax
	movl	2536(%rax), %esi
	addl	-4(%rbp), %esi
	movl	%esi, -4(%rbp)
	movq	-16(%rbp), %rax
	movl	2540(%rax), %esi
	addl	-4(%rbp), %esi
	movl	%esi, -4(%rbp)
	movq	-16(%rbp), %rax
	movl	2544(%rax), %esi
	addl	-4(%rbp), %esi
	movl	%esi, -4(%rbp)
	movq	-16(%rbp), %rax
	movl	2548(%rax), %esi
	addl	-4(%rbp), %esi
	movl	%esi, -4(%rbp)
	movq	-16(%rbp), %rax
	movl	2552(%rax), %esi
	addl	-4(%rbp), %esi
	movl	%esi, -4(%rbp)
	movq	-16(%rbp), %rax
	movl	2556(%rax), %esi
	addl	-4(%rbp), %esi
	movl	%esi, -4(%rbp)
	movq	-16(%rbp), %rax
	movl	2560(%rax), %esi
	addl	-4(%rbp), %esi
	movl	%esi, -4(%rbp)
	movq	-16(%rbp), %rax
	movl	2564(%rax), %esi
	addl	-4(%rbp), %esi
	movl	%esi, -4(%rbp)
	movq	-16(%rbp), %rax
	movl	2568(%rax), %esi
	addl	-4(%rbp), %esi
	movl	%esi, -4(%rbp)
	movq	-16(%rbp), %rax
	movl	2572(%rax), %esi
	addl	-4(%rbp), %esi
	movl	%esi, -4(%rbp)
	movq	-16(%rbp), %rax
	movl	2576(%rax), %esi
	addl	-4(%rbp), %esi
	movl	%esi, -4(%rbp)
	movq	-16(%rbp), %rax
	movl	2580(%rax), %esi
	addl	-4(%rbp), %esi
	movl	%esi, -4(%rbp)
	movq	-16(%rbp), %rax
	movl	2584(%rax), %esi
	addl	-4(%rbp), %esi
	movl	%esi, -4(%rbp)
	movq	-16(%rbp), %rax
	movl	2588(%rax), %esi
	addl	-4(%rbp), %esi
	movl	%esi, -4(%rbp)
	movq	-16(%rbp), %rax
	movl	2592(%rax), %esi
	addl	-4(%rbp), %esi
	movl	%esi, -4(%rbp)
	movq	-16(%rbp), %rax
	movl	2596(%rax), %esi
	addl	-4(%rbp), %esi
	movl	%esi, -4(%rbp)
	movq	-16(%rbp), %rax
	movl	2600(%rax), %esi
	addl	-4(%rbp), %esi
	movl	%esi, -4(%rbp)
	movq	-16(%rbp), %rax
	movl	2604(%rax), %esi
	addl	-4(%rbp), %esi
	movl	%esi, -4(%rbp)
	movq	-16(%rbp), %rax
	movl	2608(%rax), %esi
	addl	-4(%rbp), %esi
	movl	%esi, -4(%rbp)
	movq	-16(%rbp), %rax
	movl	2612(%rax), %esi
	addl	-4(%rbp), %esi
	movl	%esi, -4(%rbp)
	movq	-16(%rbp), %rax
	movl	2616(%rax), %esi
	addl	-4(%rbp), %esi
	movl	%esi, -4(%rbp)
	movq	-16(%rbp), %rax
	movl	2620(%rax), %esi
	addl	-4(%rbp), %esi
	movl	%esi, -4(%rbp)
	movq	-16(%rbp), %rax
	movl	2624(%rax), %esi
	addl	-4(%rbp), %esi
	movl	%esi, -4(%rbp)
	movq	-16(%rbp), %rax
	movl	2628(%rax), %esi
	addl	-4(%rbp), %esi
	movl	%esi, -4(%rbp)
	movq	-16(%rbp), %rax
	movl	2632(%rax), %esi
	addl	-4(%rbp), %esi
	movl	%esi, -4(%rbp)
	movq	-16(%rbp), %rax
	movl	2636(%rax), %esi
	addl	-4(%rbp), %esi
	movl	%esi, -4(%rbp)
	movq	-16(%rbp), %rax
	movl	2640(%rax), %esi
	addl	-4(%rbp), %esi
	movl	%esi, -4(%rbp)
	movq	-16(%rbp), %rax
	movl	2644(%rax), %esi
	addl	-4(%rbp), %esi
	movl	%esi, -4(%rbp)
	movq	-16(%rbp), %rax
	movl	2648(%rax), %esi
	addl	-4(%rbp), %esi
	movl	%esi, -4(%rbp)
	movq	-16(%rbp), %rax
	movl	2652(%rax), %esi
	addl	-4(%rbp), %esi
	movl	%esi, -4(%rbp)
	movq	-16(%rbp), %rax
	movl	2656(%rax), %esi
	addl	-4(%rbp), %esi
	movl	%esi, -4(%rbp)
	movq	-16(%rbp), %rax
	movl	2660(%rax), %esi
	addl	-4(%rbp), %esi
	movl	%esi, -4(%rbp)
	movq	-16(%rbp), %rax
	movl	2664(%rax), %esi
	addl	-4(%rbp), %esi
	movl	%esi, -4(%rbp)
	movq	-16(%rbp), %rax
	movl	2668(%rax), %esi
	addl	-4(%rbp), %esi
	movl	%esi, -4(%rbp)
	movq	-16(%rbp), %rax
	movl	2672(%rax), %esi
	addl	-4(%rbp), %esi
	movl	%esi, -4(%rbp)
	movq	-16(%rbp), %rax
	movl	2676(%rax), %esi
	addl	-4(%rbp), %esi
	movl	%esi, -4(%rbp)
	movq	-16(%rbp), %rax
	movl	2680(%rax), %esi
	addl	-4(%rbp), %esi
	movl	%esi, -4(%rbp)
	movq	-16(%rbp), %rax
	movl	2684(%rax), %esi
	addl	-4(%rbp), %esi
	movl	%esi, -4(%rbp)
	movq	-16(%rbp), %rax
	movl	2688(%rax), %esi
	addl	-4(%rbp), %esi
	movl	%esi, -4(%rbp)
	movq	-16(%rbp), %rax
	movl	2692(%rax), %esi
	addl	-4(%rbp), %esi
	movl	%esi, -4(%rbp)
	movq	-16(%rbp), %rax
	movl	2696(%rax), %esi
	addl	-4(%rbp), %esi
	movl	%esi, -4(%rbp)
	movq	-16(%rbp), %rax
	movl	2700(%rax), %esi
	addl	-4(%rbp), %esi
	movl	%esi, -4(%rbp)
	movq	-16(%rbp), %rax
	movl	2704(%rax), %esi
	addl	-4(%rbp), %esi
	movl	%esi, -4(%rbp)
	movq	-16(%rbp), %rax
	movl	2708(%rax), %esi
	addl	-4(%rbp), %esi
	movl	%esi, -4(%rbp)
	movq	-16(%rbp), %rax
	movl	2712(%rax), %esi
	addl	-4(%rbp), %esi
	movl	%esi, -4(%rbp)
	movq	-16(%rbp), %rax
	movl	2716(%rax), %esi
	addl	-4(%rbp), %esi
	movl	%esi, -4(%rbp)
	movq	-16(%rbp), %rax
	movl	2720(%rax), %esi
	addl	-4(%rbp), %esi
	movl	%esi, -4(%rbp)
	movq	-16(%rbp), %rax
	movl	2724(%rax), %esi
	addl	-4(%rbp), %esi
	movl	%esi, -4(%rbp)
	movq	-16(%rbp), %rax
	movl	2728(%rax), %esi
	addl	-4(%rbp), %esi
	movl	%esi, -4(%rbp)
	movq	-16(%rbp), %rax
	movl	2732(%rax), %esi
	addl	-4(%rbp), %esi
	movl	%esi, -4(%rbp)
	movq	-16(%rbp), %rax
	movl	2736(%rax), %esi
	addl	-4(%rbp), %esi
	movl	%esi, -4(%rbp)
	movq	-16(%rbp), %rax
	movl	2740(%rax), %esi
	addl	-4(%rbp), %esi
	movl	%esi, -4(%rbp)
	movq	-16(%rbp), %rax
	movl	2744(%rax), %esi
	addl	-4(%rbp), %esi
	movl	%esi, -4(%rbp)
	movq	-16(%rbp), %rax
	movl	2748(%rax), %esi
	addl	-4(%rbp), %esi
	movl	%esi, -4(%rbp)
	movq	-16(%rbp), %rax
	movl	2752(%rax), %esi
	addl	-4(%rbp), %esi
	movl	%esi, -4(%rbp)
	movq	-16(%rbp), %rax
	movl	2756(%rax), %esi
	addl	-4(%rbp), %esi
	movl	%esi, -4(%rbp)
	movq	-16(%rbp), %rax
	movl	2760(%rax), %esi
	addl	-4(%rbp), %esi
	movl	%esi, -4(%rbp)
	movq	-16(%rbp), %rax
	movl	2764(%rax), %esi
	addl	-4(%rbp), %esi
	movl	%esi, -4(%rbp)
	movq	-16(%rbp), %rax
	movl	2768(%rax), %esi
	addl	-4(%rbp), %esi
	movl	%esi, -4(%rbp)
	movq	-16(%rbp), %rax
	movl	2772(%rax), %esi
	addl	-4(%rbp), %esi
	movl	%esi, -4(%rbp)
	movq	-16(%rbp), %rax
	movl	2776(%rax), %esi
	addl	-4(%rbp), %esi
	movl	%esi, -4(%rbp)
	movq	-16(%rbp), %rax
	movl	2780(%rax), %esi
	addl	-4(%rbp), %esi
	movl	%esi, -4(%rbp)
	movq	-16(%rbp), %rax
	movl	2784(%rax), %esi
	addl	-4(%rbp), %esi
	movl	%esi, -4(%rbp)
	movq	-16(%rbp), %rax
	movl	2788(%rax), %esi
	addl	-4(%rbp), %esi
	movl	%esi, -4(%rbp)
	movq	-16(%rbp), %rax
	movl	2792(%rax), %esi
	addl	-4(%rbp), %esi
	movl	%esi, -4(%rbp)
	movq	-16(%rbp), %rax
	movl	2796(%rax), %esi
	addl	-4(%rbp), %esi
	movl	%esi, -4(%rbp)
	movq	-16(%rbp), %rax
	movl	2800(%rax), %esi
	addl	-4(%rbp), %esi
	movl	%esi, -4(%rbp)
	movq	-16(%rbp), %rax
	movl	2804(%rax), %esi
	addl	-4(%rbp), %esi
	movl	%esi, -4(%rbp)
	movq	-16(%rbp), %rax
	movl	2808(%rax), %esi
	addl	-4(%rbp), %esi
	movl	%esi, -4(%rbp)
	movq	-16(%rbp), %rax
	movl	2812(%rax), %esi
	addl	-4(%rbp), %esi
	movl	%esi, -4(%rbp)
	movq	-16(%rbp), %rax
	movl	2816(%rax), %esi
	addl	-4(%rbp), %esi
	movl	%esi, -4(%rbp)
	movq	-16(%rbp), %rax
	movl	2820(%rax), %esi
	addl	-4(%rbp), %esi
	movl	%esi, -4(%rbp)
	movq	-16(%rbp), %rax
	movl	2824(%rax), %esi
	addl	-4(%rbp), %esi
	movl	%esi, -4(%rbp)
	movq	-16(%rbp), %rax
	movl	2828(%rax), %esi
	addl	-4(%rbp), %esi
	movl	%esi, -4(%rbp)
	movq	-16(%rbp), %rax
	movl	2832(%rax), %esi
	addl	-4(%rbp), %esi
	movl	%esi, -4(%rbp)
	movq	-16(%rbp), %rax
	movl	2836(%rax), %esi
	addl	-4(%rbp), %esi
	movl	%esi, -4(%rbp)
	movq	-16(%rbp), %rax
	movl	2840(%rax), %esi
	addl	-4(%rbp), %esi
	movl	%esi, -4(%rbp)
	movq	-16(%rbp), %rax
	movl	2844(%rax), %esi
	addl	-4(%rbp), %esi
	movl	%esi, -4(%rbp)
	movq	-16(%rbp), %rax
	movl	2848(%rax), %esi
	addl	-4(%rbp), %esi
	movl	%esi, -4(%rbp)
	movq	-16(%rbp), %rax
	movl	2852(%rax), %esi
	addl	-4(%rbp), %esi
	movl	%esi, -4(%rbp)
	movq	-16(%rbp), %rax
	movl	2856(%rax), %esi
	addl	-4(%rbp), %esi
	movl	%esi, -4(%rbp)
	movq	-16(%rbp), %rax
	movl	2860(%rax), %esi
	addl	-4(%rbp), %esi
	movl	%esi, -4(%rbp)
	movq	-16(%rbp), %rax
	movl	2864(%rax), %esi
	addl	-4(%rbp), %esi
	movl	%esi, -4(%rbp)
	movq	-16(%rbp), %rax
	movl	2868(%rax), %esi
	addl	-4(%rbp), %esi
	movl	%esi, -4(%rbp)
	movq	-16(%rbp), %rax
	movl	2872(%rax), %esi
	addl	-4(%rbp), %esi
	movl	%esi, -4(%rbp)
	movq	-16(%rbp), %rax
	movl	2876(%rax), %esi
	addl	-4(%rbp), %esi
	movl	%esi, -4(%rbp)
	movq	-16(%rbp), %rax
	movl	2880(%rax), %esi
	addl	-4(%rbp), %esi
	movl	%esi, -4(%rbp)
	movq	-16(%rbp), %rax
	movl	2884(%rax), %esi
	addl	-4(%rbp), %esi
	movl	%esi, -4(%rbp)
	movq	-16(%rbp), %rax
	movl	2888(%rax), %esi
	addl	-4(%rbp), %esi
	movl	%esi, -4(%rbp)
	movq	-16(%rbp), %rax
	movl	2892(%rax), %esi
	addl	-4(%rbp), %esi
	movl	%esi, -4(%rbp)
	movq	-16(%rbp), %rax
	movl	2896(%rax), %esi
	addl	-4(%rbp), %esi
	movl	%esi, -4(%rbp)
	movq	-16(%rbp), %rax
	movl	2900(%rax), %esi
	addl	-4(%rbp), %esi
	movl	%esi, -4(%rbp)
	movq	-16(%rbp), %rax
	movl	2904(%rax), %esi
	addl	-4(%rbp), %esi
	movl	%esi, -4(%rbp)
	movq	-16(%rbp), %rax
	movl	2908(%rax), %esi
	addl	-4(%rbp), %esi
	movl	%esi, -4(%rbp)
	movq	-16(%rbp), %rax
	movl	2912(%rax), %esi
	addl	-4(%rbp), %esi
	movl	%esi, -4(%rbp)
	movq	-16(%rbp), %rax
	movl	2916(%rax), %esi
	addl	-4(%rbp), %esi
	movl	%esi, -4(%rbp)
	movq	-16(%rbp), %rax
	movl	2920(%rax), %esi
	addl	-4(%rbp), %esi
	movl	%esi, -4(%rbp)
	movq	-16(%rbp), %rax
	movl	2924(%rax), %esi
	addl	-4(%rbp), %esi
	movl	%esi, -4(%rbp)
	movq	-16(%rbp), %rax
	movl	2928(%rax), %esi
	addl	-4(%rbp), %esi
	movl	%esi, -4(%rbp)
	movq	-16(%rbp), %rax
	movl	2932(%rax), %esi
	addl	-4(%rbp), %esi
	movl	%esi, -4(%rbp)
	movq	-16(%rbp), %rax
	movl	2936(%rax), %esi
	addl	-4(%rbp), %esi
	movl	%esi, -4(%rbp)
	movq	-16(%rbp), %rax
	movl	2940(%rax), %esi
	addl	-4(%rbp), %esi
	movl	%esi, -4(%rbp)
	movq	-16(%rbp), %rax
	movl	2944(%rax), %esi
	addl	-4(%rbp), %esi
	movl	%esi, -4(%rbp)
	movq	-16(%rbp), %rax
	movl	2948(%rax), %esi
	addl	-4(%rbp), %esi
	movl	%esi, -4(%rbp)
	movq	-16(%rbp), %rax
	movl	2952(%rax), %esi
	addl	-4(%rbp), %esi
	movl	%esi, -4(%rbp)
	movq	-16(%rbp), %rax
	movl	2956(%rax), %esi
	addl	-4(%rbp), %esi
	movl	%esi, -4(%rbp)
	movq	-16(%rbp), %rax
	movl	2960(%rax), %esi
	addl	-4(%rbp), %esi
	movl	%esi, -4(%rbp)
	movq	-16(%rbp), %rax
	movl	2964(%rax), %esi
	addl	-4(%rbp), %esi
	movl	%esi, -4(%rbp)
	movq	-16(%rbp), %rax
	movl	2968(%rax), %esi
	addl	-4(%rbp), %esi
	movl	%esi, -4(%rbp)
	movq	-16(%rbp), %rax
	movl	2972(%rax), %esi
	addl	-4(%rbp), %esi
	movl	%esi, -4(%rbp)
	movq	-16(%rbp), %rax
	movl	2976(%rax), %esi
	addl	-4(%rbp), %esi
	movl	%esi, -4(%rbp)
	movq	-16(%rbp), %rax
	movl	2980(%rax), %esi
	addl	-4(%rbp), %esi
	movl	%esi, -4(%rbp)
	movq	-16(%rbp), %rax
	movl	2984(%rax), %esi
	addl	-4(%rbp), %esi
	movl	%esi, -4(%rbp)
	movq	-16(%rbp), %rax
	movl	2988(%rax), %esi
	addl	-4(%rbp), %esi
	movl	%esi, -4(%rbp)
	movq	-16(%rbp), %rax
	movl	2992(%rax), %esi
	addl	-4(%rbp), %esi
	movl	%esi, -4(%rbp)
	movq	-16(%rbp), %rax
	movl	2996(%rax), %esi
	addl	-4(%rbp), %esi
	movl	%esi, -4(%rbp)
	movq	-16(%rbp), %rax
	movl	3000(%rax), %esi
	addl	-4(%rbp), %esi
	movl	%esi, -4(%rbp)
	movq	-16(%rbp), %rax
	movl	3004(%rax), %esi
	addl	-4(%rbp), %esi
	movl	%esi, -4(%rbp)
	movq	-16(%rbp), %rax
	movl	3008(%rax), %esi
	addl	-4(%rbp), %esi
	movl	%esi, -4(%rbp)
	movq	-16(%rbp), %rax
	movl	3012(%rax), %esi
	addl	-4(%rbp), %esi
	movl	%esi, -4(%rbp)
	movq	-16(%rbp), %rax
	movl	3016(%rax), %esi
	addl	-4(%rbp), %esi
	movl	%esi, -4(%rbp)
	movq	-16(%rbp), %rax
	movl	3020(%rax), %esi
	addl	-4(%rbp), %esi
	movl	%esi, -4(%rbp)
	movq	-16(%rbp), %rax
	movl	3024(%rax), %esi
	addl	-4(%rbp), %esi
	movl	%esi, -4(%rbp)
	movq	-16(%rbp), %rax
	movl	3028(%rax), %esi
	addl	-4(%rbp), %esi
	movl	%esi, -4(%rbp)
	movq	-16(%rbp), %rax
	movl	3032(%rax), %esi
	addl	-4(%rbp), %esi
	movl	%esi, -4(%rbp)
	movq	-16(%rbp), %rax
	movl	3036(%rax), %esi
	addl	-4(%rbp), %esi
	movl	%esi, -4(%rbp)
	movq	-16(%rbp), %rax
	movl	3040(%rax), %esi
	addl	-4(%rbp), %esi
	movl	%esi, -4(%rbp)
	movq	-16(%rbp), %rax
	movl	3044(%rax), %esi
	addl	-4(%rbp), %esi
	movl	%esi, -4(%rbp)
	movq	-16(%rbp), %rax
	movl	3048(%rax), %esi
	addl	-4(%rbp), %esi
	movl	%esi, -4(%rbp)
	movq	-16(%rbp), %rax
	movl	3052(%rax), %esi
	addl	-4(%rbp), %esi
	movl	%esi, -4(%rbp)
	movq	-16(%rbp), %rax
	movl	3056(%rax), %esi
	addl	-4(%rbp), %esi
	movl	%esi, -4(%rbp)
	movq	-16(%rbp), %rax
	movl	3060(%rax), %esi
	addl	-4(%rbp), %esi
	movl	%esi, -4(%rbp)
	movq	-16(%rbp), %rax
	movl	3064(%rax), %esi
	addl	-4(%rbp), %esi
	movl	%esi, -4(%rbp)
	movq	-16(%rbp), %rax
	movl	3068(%rax), %esi
	addl	-4(%rbp), %esi
	movl	%esi, -4(%rbp)
	movq	-16(%rbp), %rax
	movl	3072(%rax), %esi
	addl	-4(%rbp), %esi
	movl	%esi, -4(%rbp)
	movq	-16(%rbp), %rax
	movl	3076(%rax), %esi
	addl	-4(%rbp), %esi
	movl	%esi, -4(%rbp)
	movq	-16(%rbp), %rax
	movl	3080(%rax), %esi
	addl	-4(%rbp), %esi
	movl	%esi, -4(%rbp)
	movq	-16(%rbp), %rax
	movl	3084(%rax), %esi
	addl	-4(%rbp), %esi
	movl	%esi, -4(%rbp)
	movq	-16(%rbp), %rax
	movl	3088(%rax), %esi
	addl	-4(%rbp), %esi
	movl	%esi, -4(%rbp)
	movq	-16(%rbp), %rax
	movl	3092(%rax), %esi
	addl	-4(%rbp), %esi
	movl	%esi, -4(%rbp)
	movq	-16(%rbp), %rax
	movl	3096(%rax), %esi
	addl	-4(%rbp), %esi
	movl	%esi, -4(%rbp)
	movq	-16(%rbp), %rax
	movl	3100(%rax), %esi
	addl	-4(%rbp), %esi
	movl	%esi, -4(%rbp)
	movq	-16(%rbp), %rax
	movl	3104(%rax), %esi
	addl	-4(%rbp), %esi
	movl	%esi, -4(%rbp)
	movq	-16(%rbp), %rax
	movl	3108(%rax), %esi
	addl	-4(%rbp), %esi
	movl	%esi, -4(%rbp)
	movq	-16(%rbp), %rax
	movl	3112(%rax), %esi
	addl	-4(%rbp), %esi
	movl	%esi, -4(%rbp)
	movq	-16(%rbp), %rax
	movl	3116(%rax), %esi
	addl	-4(%rbp), %esi
	movl	%esi, -4(%rbp)
	movq	-16(%rbp), %rax
	movl	3120(%rax), %esi
	addl	-4(%rbp), %esi
	movl	%esi, -4(%rbp)
	movq	-16(%rbp), %rax
	movl	3124(%rax), %esi
	addl	-4(%rbp), %esi
	movl	%esi, -4(%rbp)
	movq	-16(%rbp), %rax
	movl	3128(%rax), %esi
	addl	-4(%rbp), %esi
	movl	%esi, -4(%rbp)
	movq	-16(%rbp), %rax
	movl	3132(%rax), %esi
	addl	-4(%rbp), %esi
	movl	%esi, -4(%rbp)
	movq	-16(%rbp), %rax
	movl	3136(%rax), %esi
	addl	-4(%rbp), %esi
	movl	%esi, -4(%rbp)
	movq	-16(%rbp), %rax
	movl	3140(%rax), %esi
	addl	-4(%rbp), %esi
	movl	%esi, -4(%rbp)
	movq	-16(%rbp), %rax
	movl	3144(%rax), %esi
	addl	-4(%rbp), %esi
	movl	%esi, -4(%rbp)
	movq	-16(%rbp), %rax
	movl	3148(%rax), %esi
	addl	-4(%rbp), %esi
	movl	%esi, -4(%rbp)
	movq	-16(%rbp), %rax
	movl	3152(%rax), %esi
	addl	-4(%rbp), %esi
	movl	%esi, -4(%rbp)
	movq	-16(%rbp), %rax
	movl	3156(%rax), %esi
	addl	-4(%rbp), %esi
	movl	%esi, -4(%rbp)
	movq	-16(%rbp), %rax
	movl	3160(%rax), %esi
	addl	-4(%rbp), %esi
	movl	%esi, -4(%rbp)
	movq	-16(%rbp), %rax
	movl	3164(%rax), %esi
	addl	-4(%rbp), %esi
	movl	%esi, -4(%rbp)
	movq	-16(%rbp), %rax
	movl	3168(%rax), %esi
	addl	-4(%rbp), %esi
	movl	%esi, -4(%rbp)
	movq	-16(%rbp), %rax
	movl	3172(%rax), %esi
	addl	-4(%rbp), %esi
	movl	%esi, -4(%rbp)
	movq	-16(%rbp), %rax
	movl	3176(%rax), %esi
	addl	-4(%rbp), %esi
	movl	%esi, -4(%rbp)
	movq	-16(%rbp), %rax
	movl	3180(%rax), %esi
	addl	-4(%rbp), %esi
	movl	%esi, -4(%rbp)
	movq	-16(%rbp), %rax
	movl	3184(%rax), %esi
	addl	-4(%rbp), %esi
	movl	%esi, -4(%rbp)
	movq	-16(%rbp), %rax
	movl	3188(%rax), %esi
	addl	-4(%rbp), %esi
	movl	%esi, -4(%rbp)
	movq	-16(%rbp), %rax
	movl	3192(%rax), %esi
	addl	-4(%rbp), %esi
	movl	%esi, -4(%rbp)
	movq	-16(%rbp), %rax
	movl	3196(%rax), %esi
	addl	-4(%rbp), %esi
	movl	%esi, -4(%rbp)
	movq	-16(%rbp), %rax
	movl	3200(%rax), %esi
	addl	-4(%rbp), %esi
	movl	%esi, -4(%rbp)
	movq	-16(%rbp), %rax
	movl	3204(%rax), %esi
	addl	-4(%rbp), %esi
	movl	%esi, -4(%rbp)
	movq	-16(%rbp), %rax
	movl	3208(%rax), %esi
	addl	-4(%rbp), %esi
	movl	%esi, -4(%rbp)
	movq	-16(%rbp), %rax
	movl	3212(%rax), %esi
	addl	-4(%rbp), %esi
	movl	%esi, -4(%rbp)
	movq	-16(%rbp), %rax
	movl	3216(%rax), %esi
	addl	-4(%rbp), %esi
	movl	%esi, -4(%rbp)
	movq	-16(%rbp), %rax
	movl	3220(%rax), %esi
	addl	-4(%rbp), %esi
	movl	%esi, -4(%rbp)
	movq	-16(%rbp), %rax
	movl	3224(%rax), %esi
	addl	-4(%rbp), %esi
	movl	%esi, -4(%rbp)
	movq	-16(%rbp), %rax
	movl	3228(%rax), %esi
	addl	-4(%rbp), %esi
	movl	%esi, -4(%rbp)
	movq	-16(%rbp), %rax
	movl	3232(%rax), %esi
	addl	-4(%rbp), %esi
	movl	%esi, -4(%rbp)
	movq	-16(%rbp), %rax
	movl	3236(%rax), %esi
	addl	-4(%rbp), %esi
	movl	%esi, -4(%rbp)
	movq	-16(%rbp), %rax
	movl	3240(%rax), %esi
	addl	-4(%rbp), %esi
	movl	%esi, -4(%rbp)
	movq	-16(%rbp), %rax
	movl	3244(%rax), %esi
	addl	-4(%rbp), %esi
	movl	%esi, -4(%rbp)
	movq	-16(%rbp), %rax
	movl	3248(%rax), %esi
	addl	-4(%rbp), %esi
	movl	%esi, -4(%rbp)
	movq	-16(%rbp), %rax
	movl	3252(%rax), %esi
	addl	-4(%rbp), %esi
	movl	%esi, -4(%rbp)
	movq	-16(%rbp), %rax
	movl	3256(%rax), %esi
	addl	-4(%rbp), %esi
	movl	%esi, -4(%rbp)
	movq	-16(%rbp), %rax
	movl	3260(%rax), %esi
	addl	-4(%rbp), %esi
	movl	%esi, -4(%rbp)
	movq	-16(%rbp), %rax
	movl	3264(%rax), %esi
	addl	-4(%rbp), %esi
	movl	%esi, -4(%rbp)
	movq	-16(%rbp), %rax
	movl	3268(%rax), %esi
	addl	-4(%rbp), %esi
	movl	%esi, -4(%rbp)
	movq	-16(%rbp), %rax
	movl	3272(%rax), %esi
	addl	-4(%rbp), %esi
	movl	%esi, -4(%rbp)
	movq	-16(%rbp), %rax
	movl	3276(%rax), %esi
	addl	-4(%rbp), %esi
	movl	%esi, -4(%rbp)
	movq	-16(%rbp), %rax
	movl	3280(%rax), %esi
	addl	-4(%rbp), %esi
	movl	%esi, -4(%rbp)
	movq	-16(%rbp), %rax
	movl	3284(%rax), %esi
	addl	-4(%rbp), %esi
	movl	%esi, -4(%rbp)
	movq	-16(%rbp), %rax
	movl	3288(%rax), %esi
	addl	-4(%rbp), %esi
	movl	%esi, -4(%rbp)
	movq	-16(%rbp), %rax
	movl	3292(%rax), %esi
	addl	-4(%rbp), %esi
	movl	%esi, -4(%rbp)
	movq	-16(%rbp), %rax
	movl	3296(%rax), %esi
	addl	-4(%rbp), %esi
	movl	%esi, -4(%rbp)
	movq	-16(%rbp), %rax
	movl	3300(%rax), %esi
	addl	-4(%rbp), %esi
	movl	%esi, -4(%rbp)
	movq	-16(%rbp), %rax
	movl	3304(%rax), %esi
	addl	-4(%rbp), %esi
	movl	%esi, -4(%rbp)
	movq	-16(%rbp), %rax
	movl	3308(%rax), %esi
	addl	-4(%rbp), %esi
	movl	%esi, -4(%rbp)
	movq	-16(%rbp), %rax
	movl	3312(%rax), %esi
	addl	-4(%rbp), %esi
	movl	%esi, -4(%rbp)
	movq	-16(%rbp), %rax
	movl	3316(%rax), %esi
	addl	-4(%rbp), %esi
	movl	%esi, -4(%rbp)
	movq	-16(%rbp), %rax
	movl	3320(%rax), %esi
	addl	-4(%rbp), %esi
	movl	%esi, -4(%rbp)
	movq	-16(%rbp), %rax
	movl	3324(%rax), %esi
	addl	-4(%rbp), %esi
	movl	%esi, -4(%rbp)
	movq	-16(%rbp), %rax
	movl	3328(%rax), %esi
	addl	-4(%rbp), %esi
	movl	%esi, -4(%rbp)
	movq	-16(%rbp), %rax
	movl	3332(%rax), %esi
	addl	-4(%rbp), %esi
	movl	%esi, -4(%rbp)
	movq	-16(%rbp), %rax
	movl	3336(%rax), %esi
	addl	-4(%rbp), %esi
	movl	%esi, -4(%rbp)
	movq	-16(%rbp), %rax
	movl	3340(%rax), %esi
	addl	-4(%rbp), %esi
	movl	%esi, -4(%rbp)
	movq	-16(%rbp), %rax
	movl	3344(%rax), %esi
	addl	-4(%rbp), %esi
	movl	%esi, -4(%rbp)
	movq	-16(%rbp), %rax
	movl	3348(%rax), %esi
	addl	-4(%rbp), %esi
	movl	%esi, -4(%rbp)
	movq	-16(%rbp), %rax
	movl	3352(%rax), %esi
	addl	-4(%rbp), %esi
	movl	%esi, -4(%rbp)
	movq	-16(%rbp), %rax
	movl	3356(%rax), %esi
	addl	-4(%rbp), %esi
	movl	%esi, -4(%rbp)
	movq	-16(%rbp), %rax
	movl	3360(%rax), %esi
	addl	-4(%rbp), %esi
	movl	%esi, -4(%rbp)
	movq	-16(%rbp), %rax
	movl	3364(%rax), %esi
	addl	-4(%rbp), %esi
	movl	%esi, -4(%rbp)
	movq	-16(%rbp), %rax
	movl	3368(%rax), %esi
	addl	-4(%rbp), %esi
	movl	%esi, -4(%rbp)
	movq	-16(%rbp), %rax
	movl	3372(%rax), %esi
	addl	-4(%rbp), %esi
	movl	%esi, -4(%rbp)
	movq	-16(%rbp), %rax
	movl	3376(%rax), %esi
	addl	-4(%rbp), %esi
	movl	%esi, -4(%rbp)
	movq	-16(%rbp), %rax
	movl	3380(%rax), %esi
	addl	-4(%rbp), %esi
	movl	%esi, -4(%rbp)
	movq	-16(%rbp), %rax
	movl	3384(%rax), %esi
	addl	-4(%rbp), %esi
	movl	%esi, -4(%rbp)
	movq	-16(%rbp), %rax
	movl	3388(%rax), %esi
	addl	-4(%rbp), %esi
	movl	%esi, -4(%rbp)
	movq	-16(%rbp), %rax
	movl	3392(%rax), %esi
	addl	-4(%rbp), %esi
	movl	%esi, -4(%rbp)
	movq	-16(%rbp), %rax
	movl	3396(%rax), %esi
	addl	-4(%rbp), %esi
	movl	%esi, -4(%rbp)
	movq	-16(%rbp), %rax
	movl	3400(%rax), %esi
	addl	-4(%rbp), %esi
	movl	%esi, -4(%rbp)
	movq	-16(%rbp), %rax
	movl	3404(%rax), %esi
	addl	-4(%rbp), %esi
	movl	%esi, -4(%rbp)
	movq	-16(%rbp), %rax
	movl	3408(%rax), %esi
	addl	-4(%rbp), %esi
	movl	%esi, -4(%rbp)
	movq	-16(%rbp), %rax
	movl	3412(%rax), %esi
	addl	-4(%rbp), %esi
	movl	%esi, -4(%rbp)
	movq	-16(%rbp), %rax
	movl	3416(%rax), %esi
	addl	-4(%rbp), %esi
	movl	%esi, -4(%rbp)
	movq	-16(%rbp), %rax
	movl	3420(%rax), %esi
	addl	-4(%rbp), %esi
	movl	%esi, -4(%rbp)
	movq	-16(%rbp), %rax
	movl	3424(%rax), %esi
	addl	-4(%rbp), %esi
	movl	%esi, -4(%rbp)
	movq	-16(%rbp), %rax
	movl	3428(%rax), %esi
	addl	-4(%rbp), %esi
	movl	%esi, -4(%rbp)
	movq	-16(%rbp), %rax
	movl	3432(%rax), %esi
	addl	-4(%rbp), %esi
	movl	%esi, -4(%rbp)
	movq	-16(%rbp), %rax
	movl	3436(%rax), %esi
	addl	-4(%rbp), %esi
	movl	%esi, -4(%rbp)
	movq	-16(%rbp), %rax
	movl	3440(%rax), %esi
	addl	-4(%rbp), %esi
	movl	%esi, -4(%rbp)
	movq	-16(%rbp), %rax
	movl	3444(%rax), %esi
	addl	-4(%rbp), %esi
	movl	%esi, -4(%rbp)
	movq	-16(%rbp), %rax
	movl	3448(%rax), %esi
	addl	-4(%rbp), %esi
	movl	%esi, -4(%rbp)
	movq	-16(%rbp), %rax
	movl	3452(%rax), %esi
	addl	-4(%rbp), %esi
	movl	%esi, -4(%rbp)
	movq	-16(%rbp), %rax
	movl	3456(%rax), %esi
	addl	-4(%rbp), %esi
	movl	%esi, -4(%rbp)
	movq	-16(%rbp), %rax
	movl	3460(%rax), %esi
	addl	-4(%rbp), %esi
	movl	%esi, -4(%rbp)
	movq	-16(%rbp), %rax
	movl	3464(%rax), %esi
	addl	-4(%rbp), %esi
	movl	%esi, -4(%rbp)
	movq	-16(%rbp), %rax
	movl	3468(%rax), %esi
	addl	-4(%rbp), %esi
	movl	%esi, -4(%rbp)
	movq	-16(%rbp), %rax
	movl	3472(%rax), %esi
	addl	-4(%rbp), %esi
	movl	%esi, -4(%rbp)
	movq	-16(%rbp), %rax
	movl	3476(%rax), %esi
	addl	-4(%rbp), %esi
	movl	%esi, -4(%rbp)
	movq	-16(%rbp), %rax
	movl	3480(%rax), %esi
	addl	-4(%rbp), %esi
	movl	%esi, -4(%rbp)
	movq	-16(%rbp), %rax
	movl	3484(%rax), %esi
	addl	-4(%rbp), %esi
	movl	%esi, -4(%rbp)
	movq	-16(%rbp), %rax
	movl	3488(%rax), %esi
	addl	-4(%rbp), %esi
	movl	%esi, -4(%rbp)
	movq	-16(%rbp), %rax
	movl	3492(%rax), %esi
	addl	-4(%rbp), %esi
	movl	%esi, -4(%rbp)
	movq	-16(%rbp), %rax
	movl	3496(%rax), %esi
	addl	-4(%rbp), %esi
	movl	%esi, -4(%rbp)
	movq	-16(%rbp), %rax
	movl	3500(%rax), %esi
	addl	-4(%rbp), %esi
	movl	%esi, -4(%rbp)
	movq	-16(%rbp), %rax
	movl	3504(%rax), %esi
	addl	-4(%rbp), %esi
	movl	%esi, -4(%rbp)
	movq	-16(%rbp), %rax
	movl	3508(%rax), %esi
	addl	-4(%rbp), %esi
	movl	%esi, -4(%rbp)
	movq	-16(%rbp), %rax
	movl	3512(%rax), %esi
	addl	-4(%rbp), %esi
	movl	%esi, -4(%rbp)
	movq	-16(%rbp), %rax
	movl	3516(%rax), %esi
	addl	-4(%rbp), %esi
	movl	%esi, -4(%rbp)
	movq	-16(%rbp), %rax
	movl	3520(%rax), %esi
	addl	-4(%rbp), %esi
	movl	%esi, -4(%rbp)
	movq	-16(%rbp), %rax
	movl	3524(%rax), %esi
	addl	-4(%rbp), %esi
	movl	%esi, -4(%rbp)
	movq	-16(%rbp), %rax
	movl	3528(%rax), %esi
	addl	-4(%rbp), %esi
	movl	%esi, -4(%rbp)
	movq	-16(%rbp), %rax
	movl	3532(%rax), %esi
	addl	-4(%rbp), %esi
	movl	%esi, -4(%rbp)
	movq	-16(%rbp), %rax
	movl	3536(%rax), %esi
	addl	-4(%rbp), %esi
	movl	%esi, -4(%rbp)
	movq	-16(%rbp), %rax
	movl	3540(%rax), %esi
	addl	-4(%rbp), %esi
	movl	%esi, -4(%rbp)
	movq	-16(%rbp), %rax
	movl	3544(%rax), %esi
	addl	-4(%rbp), %esi
	movl	%esi, -4(%rbp)
	movq	-16(%rbp), %rax
	movl	3548(%rax), %esi
	addl	-4(%rbp), %esi
	movl	%esi, -4(%rbp)
	movq	-16(%rbp), %rax
	movl	3552(%rax), %esi
	addl	-4(%rbp), %esi
	movl	%esi, -4(%rbp)
	movq	-16(%rbp), %rax
	movl	3556(%rax), %esi
	addl	-4(%rbp), %esi
	movl	%esi, -4(%rbp)
	movq	-16(%rbp), %rax
	movl	3560(%rax), %esi
	addl	-4(%rbp), %esi
	movl	%esi, -4(%rbp)
	movq	-16(%rbp), %rax
	movl	3564(%rax), %esi
	addl	-4(%rbp), %esi
	movl	%esi, -4(%rbp)
	movq	-16(%rbp), %rax
	movl	3568(%rax), %esi
	addl	-4(%rbp), %esi
	movl	%esi, -4(%rbp)
	movq	-16(%rbp), %rax
	movl	3572(%rax), %esi
	addl	-4(%rbp), %esi
	movl	%esi, -4(%rbp)
	movq	-16(%rbp), %rax
	movl	3576(%rax), %esi
	addl	-4(%rbp), %esi
	movl	%esi, -4(%rbp)
	movq	-16(%rbp), %rax
	movl	3580(%rax), %esi
	addl	-4(%rbp), %esi
	movl	%esi, -4(%rbp)
	movq	-16(%rbp), %rax
	movl	3584(%rax), %esi
	addl	-4(%rbp), %esi
	movl	%esi, -4(%rbp)
	movq	-16(%rbp), %rax
	movl	3588(%rax), %esi
	addl	-4(%rbp), %esi
	movl	%esi, -4(%rbp)
	movq	-16(%rbp), %rax
	movl	3592(%rax), %esi
	addl	-4(%rbp), %esi
	movl	%esi, -4(%rbp)
	movq	-16(%rbp), %rax
	movl	3596(%rax), %esi
	addl	-4(%rbp), %esi
	movl	%esi, -4(%rbp)
	movq	-16(%rbp), %rax
	movl	3600(%rax), %esi
	addl	-4(%rbp), %esi
	movl	%esi, -4(%rbp)
	movq	-16(%rbp), %rax
	movl	3604(%rax), %esi
	addl	-4(%rbp), %esi
	movl	%esi, -4(%rbp)
	movq	-16(%rbp), %rax
	movl	3608(%rax), %esi
	addl	-4(%rbp), %esi
	movl	%esi, -4(%rbp)
	movq	-16(%rbp), %rax
	movl	3612(%rax), %esi
	addl	-4(%rbp), %esi
	movl	%esi, -4(%rbp)
	movq	-16(%rbp), %rax
	movl	3616(%rax), %esi
	addl	-4(%rbp), %esi
	movl	%esi, -4(%rbp)
	movq	-16(%rbp), %rax
	movl	3620(%rax), %esi
	addl	-4(%rbp), %esi
	movl	%esi, -4(%rbp)
	movq	-16(%rbp), %rax
	movl	3624(%rax), %esi
	addl	-4(%rbp), %esi
	movl	%esi, -4(%rbp)
	movq	-16(%rbp), %rax
	movl	3628(%rax), %esi
	addl	-4(%rbp), %esi
	movl	%esi, -4(%rbp)
	movq	-16(%rbp), %rax
	movl	3632(%rax), %esi
	addl	-4(%rbp), %esi
	movl	%esi, -4(%rbp)
	movq	-16(%rbp), %rax
	movl	3636(%rax), %esi
	addl	-4(%rbp), %esi
	movl	%esi, -4(%rbp)
	movq	-16(%rbp), %rax
	movl	3640(%rax), %esi
	addl	-4(%rbp), %esi
	movl	%esi, -4(%rbp)
	movq	-16(%rbp), %rax
	movl	3644(%rax), %esi
	addl	-4(%rbp), %esi
	movl	%esi, -4(%rbp)
	movq	-16(%rbp), %rax
	movl	3648(%rax), %esi
	addl	-4(%rbp), %esi
	movl	%esi, -4(%rbp)
	movq	-16(%rbp), %rax
	movl	3652(%rax), %esi
	addl	-4(%rbp), %esi
	movl	%esi, -4(%rbp)
	movq	-16(%rbp), %rax
	movl	3656(%rax), %esi
	addl	-4(%rbp), %esi
	movl	%esi, -4(%rbp)
	movq	-16(%rbp), %rax
	movl	3660(%rax), %esi
	addl	-4(%rbp), %esi
	movl	%esi, -4(%rbp)
	movq	-16(%rbp), %rax
	movl	3664(%rax), %esi
	addl	-4(%rbp), %esi
	movl	%esi, -4(%rbp)
	movq	-16(%rbp), %rax
	movl	3668(%rax), %esi
	addl	-4(%rbp), %esi
	movl	%esi, -4(%rbp)
	movq	-16(%rbp), %rax
	movl	3672(%rax), %esi
	addl	-4(%rbp), %esi
	movl	%esi, -4(%rbp)
	movq	-16(%rbp), %rax
	movl	3676(%rax), %esi
	addl	-4(%rbp), %esi
	movl	%esi, -4(%rbp)
	movq	-16(%rbp), %rax
	movl	3680(%rax), %esi
	addl	-4(%rbp), %esi
	movl	%esi, -4(%rbp)
	movq	-16(%rbp), %rax
	movl	3684(%rax), %esi
	addl	-4(%rbp), %esi
	movl	%esi, -4(%rbp)
	movq	-16(%rbp), %rax
	movl	3688(%rax), %esi
	addl	-4(%rbp), %esi
	movl	%esi, -4(%rbp)
	movq	-16(%rbp), %rax
	movl	3692(%rax), %esi
	addl	-4(%rbp), %esi
	movl	%esi, -4(%rbp)
	movq	-16(%rbp), %rax
	movl	3696(%rax), %esi
	addl	-4(%rbp), %esi
	movl	%esi, -4(%rbp)
	movq	-16(%rbp), %rax
	movl	3700(%rax), %esi
	addl	-4(%rbp), %esi
	movl	%esi, -4(%rbp)
	movq	-16(%rbp), %rax
	movl	3704(%rax), %esi
	addl	-4(%rbp), %esi
	movl	%esi, -4(%rbp)
	movq	-16(%rbp), %rax
	movl	3708(%rax), %esi
	addl	-4(%rbp), %esi
	movl	%esi, -4(%rbp)
	movq	-16(%rbp), %rax
	movl	3712(%rax), %esi
	addl	-4(%rbp), %esi
	movl	%esi, -4(%rbp)
	movq	-16(%rbp), %rax
	movl	3716(%rax), %esi
	addl	-4(%rbp), %esi
	movl	%esi, -4(%rbp)
	movq	-16(%rbp), %rax
	movl	3720(%rax), %esi
	addl	-4(%rbp), %esi
	movl	%esi, -4(%rbp)
	movq	-16(%rbp), %rax
	movl	3724(%rax), %esi
	addl	-4(%rbp), %esi
	movl	%esi, -4(%rbp)
	movq	-16(%rbp), %rax
	movl	3728(%rax), %esi
	addl	-4(%rbp), %esi
	movl	%esi, -4(%rbp)
	movq	-16(%rbp), %rax
	movl	3732(%rax), %esi
	addl	-4(%rbp), %esi
	movl	%esi, -4(%rbp)
	movq	-16(%rbp), %rax
	movl	3736(%rax), %esi
	addl	-4(%rbp), %esi
	movl	%esi, -4(%rbp)
	movq	-16(%rbp), %rax
	movl	3740(%rax), %esi
	addl	-4(%rbp), %esi
	movl	%esi, -4(%rbp)
	movq	-16(%rbp), %rax
	movl	3744(%rax), %esi
	addl	-4(%rbp), %esi
	movl	%esi, -4(%rbp)
	movq	-16(%rbp), %rax
	movl	3748(%rax), %esi
	addl	-4(%rbp), %esi
	movl	%esi, -4(%rbp)
	movq	-16(%rbp), %rax
	movl	3752(%rax), %esi
	addl	-4(%rbp), %esi
	movl	%esi, -4(%rbp)
	movq	-16(%rbp), %rax
	movl	3756(%rax), %esi
	addl	-4(%rbp), %esi
	movl	%esi, -4(%rbp)
	movq	-16(%rbp), %rax
	movl	3760(%rax), %esi
	addl	-4(%rbp), %esi
	movl	%esi, -4(%rbp)
	movq	-16(%rbp), %rax
	movl	3764(%rax), %esi
	addl	-4(%rbp), %esi
	movl	%esi, -4(%rbp)
	movq	-16(%rbp), %rax
	movl	3768(%rax), %esi
	addl	-4(%rbp), %esi
	movl	%esi, -4(%rbp)
	movq	-16(%rbp), %rax
	movl	3772(%rax), %esi
	addl	-4(%rbp), %esi
	movl	%esi, -4(%rbp)
	movq	-16(%rbp), %rax
	movl	3776(%rax), %esi
	addl	-4(%rbp), %esi
	movl	%esi, -4(%rbp)
	movq	-16(%rbp), %rax
	movl	3780(%rax), %esi
	addl	-4(%rbp), %esi
	movl	%esi, -4(%rbp)
	movq	-16(%rbp), %rax
	movl	3784(%rax), %esi
	addl	-4(%rbp), %esi
	movl	%esi, -4(%rbp)
	movq	-16(%rbp), %rax
	movl	3788(%rax), %esi
	addl	-4(%rbp), %esi
	movl	%esi, -4(%rbp)
	movq	-16(%rbp), %rax
	movl	3792(%rax), %esi
	addl	-4(%rbp), %esi
	movl	%esi, -4(%rbp)
	movq	-16(%rbp), %rax
	movl	3796(%rax), %esi
	addl	-4(%rbp), %esi
	movl	%esi, -4(%rbp)
	movq	-16(%rbp), %rax
	movl	3800(%rax), %esi
	addl	-4(%rbp), %esi
	movl	%esi, -4(%rbp)
	movq	-16(%rbp), %rax
	movl	3804(%rax), %esi
	addl	-4(%rbp), %esi
	movl	%esi, -4(%rbp)
	movq	-16(%rbp), %rax
	movl	3808(%rax), %esi
	addl	-4(%rbp), %esi
	movl	%esi, -4(%rbp)
	movq	-16(%rbp), %rax
	movl	3812(%rax), %esi
	addl	-4(%rbp), %esi
	movl	%esi, -4(%rbp)
	movq	-16(%rbp), %rax
	movl	3816(%rax), %esi
	addl	-4(%rbp), %esi
	movl	%esi, -4(%rbp)
	movq	-16(%rbp), %rax
	movl	3820(%rax), %esi
	addl	-4(%rbp), %esi
	movl	%esi, -4(%rbp)
	movq	-16(%rbp), %rax
	movl	3824(%rax), %esi
	addl	-4(%rbp), %esi
	movl	%esi, -4(%rbp)
	movq	-16(%rbp), %rax
	movl	3828(%rax), %esi
	addl	-4(%rbp), %esi
	movl	%esi, -4(%rbp)
	movq	-16(%rbp), %rax
	movl	3832(%rax), %esi
	addl	-4(%rbp), %esi
	movl	%esi, -4(%rbp)
	movq	-16(%rbp), %rax
	movl	3836(%rax), %esi
	addl	-4(%rbp), %esi
	movl	%esi, -4(%rbp)
	movq	-16(%rbp), %rax
	movl	3840(%rax), %esi
	addl	-4(%rbp), %esi
	movl	%esi, -4(%rbp)
	movq	-16(%rbp), %rax
	movl	3844(%rax), %esi
	addl	-4(%rbp), %esi
	movl	%esi, -4(%rbp)
	movq	-16(%rbp), %rax
	movl	3848(%rax), %esi
	addl	-4(%rbp), %esi
	movl	%esi, -4(%rbp)
	movq	-16(%rbp), %rax
	movl	3852(%rax), %esi
	addl	-4(%rbp), %esi
	movl	%esi, -4(%rbp)
	movq	-16(%rbp), %rax
	movl	3856(%rax), %esi
	addl	-4(%rbp), %esi
	movl	%esi, -4(%rbp)
	movq	-16(%rbp), %rax
	movl	3860(%rax), %esi
	addl	-4(%rbp), %esi
	movl	%esi, -4(%rbp)
	movq	-16(%rbp), %rax
	movl	3864(%rax), %esi
	addl	-4(%rbp), %esi
	movl	%esi, -4(%rbp)
	movq	-16(%rbp), %rax
	movl	3868(%rax), %esi
	addl	-4(%rbp), %esi
	movl	%esi, -4(%rbp)
	movq	-16(%rbp), %rax
	movl	3872(%rax), %esi
	addl	-4(%rbp), %esi
	movl	%esi, -4(%rbp)
	movq	-16(%rbp), %rax
	movl	3876(%rax), %esi
	addl	-4(%rbp), %esi
	movl	%esi, -4(%rbp)
	movq	-16(%rbp), %rax
	movl	3880(%rax), %esi
	addl	-4(%rbp), %esi
	movl	%esi, -4(%rbp)
	movq	-16(%rbp), %rax
	movl	3884(%rax), %esi
	addl	-4(%rbp), %esi
	movl	%esi, -4(%rbp)
	movq	-16(%rbp), %rax
	movl	3888(%rax), %esi
	addl	-4(%rbp), %esi
	movl	%esi, -4(%rbp)
	movq	-16(%rbp), %rax
	movl	3892(%rax), %esi
	addl	-4(%rbp), %esi
	movl	%esi, -4(%rbp)
	movq	-16(%rbp), %rax
	movl	3896(%rax), %esi
	addl	-4(%rbp), %esi
	movl	%esi, -4(%rbp)
	movq	-16(%rbp), %rax
	movl	3900(%rax), %esi
	addl	-4(%rbp), %esi
	movl	%esi, -4(%rbp)
	movq	-16(%rbp), %rax
	movl	3904(%rax), %esi
	addl	-4(%rbp), %esi
	movl	%esi, -4(%rbp)
	movq	-16(%rbp), %rax
	movl	3908(%rax), %esi
	addl	-4(%rbp), %esi
	movl	%esi, -4(%rbp)
	movq	-16(%rbp), %rax
	movl	3912(%rax), %esi
	addl	-4(%rbp), %esi
	movl	%esi, -4(%rbp)
	movq	-16(%rbp), %rax
	movl	3916(%rax), %esi
	addl	-4(%rbp), %esi
	movl	%esi, -4(%rbp)
	movq	-16(%rbp), %rax
	movl	3920(%rax), %esi
	addl	-4(%rbp), %esi
	movl	%esi, -4(%rbp)
	movq	-16(%rbp), %rax
	movl	3924(%rax), %esi
	addl	-4(%rbp), %esi
	movl	%esi, -4(%rbp)
	movq	-16(%rbp), %rax
	movl	3928(%rax), %esi
	addl	-4(%rbp), %esi
	movl	%esi, -4(%rbp)
	movq	-16(%rbp), %rax
	movl	3932(%rax), %esi
	addl	-4(%rbp), %esi
	movl	%esi, -4(%rbp)
	movq	-16(%rbp), %rax
	movl	3936(%rax), %esi
	addl	-4(%rbp), %esi
	movl	%esi, -4(%rbp)
	movq	-16(%rbp), %rax
	movl	3940(%rax), %esi
	addl	-4(%rbp), %esi
	movl	%esi, -4(%rbp)
	movq	-16(%rbp), %rax
	movl	3944(%rax), %esi
	addl	-4(%rbp), %esi
	movl	%esi, -4(%rbp)
	movq	-16(%rbp), %rax
	movl	3948(%rax), %esi
	addl	-4(%rbp), %esi
	movl	%esi, -4(%rbp)
	movq	-16(%rbp), %rax
	movl	3952(%rax), %esi
	addl	-4(%rbp), %esi
	movl	%esi, -4(%rbp)
	movq	-16(%rbp), %rax
	movl	3956(%rax), %esi
	addl	-4(%rbp), %esi
	movl	%esi, -4(%rbp)
	movq	-16(%rbp), %rax
	movl	3960(%rax), %esi
	addl	-4(%rbp), %esi
	movl	%esi, -4(%rbp)
	movq	-16(%rbp), %rax
	movl	3964(%rax), %esi
	addl	-4(%rbp), %esi
	movl	%esi, -4(%rbp)
	movq	-16(%rbp), %rax
	movl	3968(%rax), %esi
	addl	-4(%rbp), %esi
	movl	%esi, -4(%rbp)
	movq	-16(%rbp), %rax
	movl	3972(%rax), %esi
	addl	-4(%rbp), %esi
	movl	%esi, -4(%rbp)
	movq	-16(%rbp), %rax
	movl	3976(%rax), %esi
	addl	-4(%rbp), %esi
	movl	%esi, -4(%rbp)
	movq	-16(%rbp), %rax
	movl	3980(%rax), %esi
	addl	-4(%rbp), %esi
	movl	%esi, -4(%rbp)
	movq	-16(%rbp), %rax
	movl	3984(%rax), %esi
	addl	-4(%rbp), %esi
	movl	%esi, -4(%rbp)
	movq	-16(%rbp), %rax
	movl	3988(%rax), %esi
	addl	-4(%rbp), %esi
	movl	%esi, -4(%rbp)
	movq	-16(%rbp), %rax
	movl	3992(%rax), %esi
	addl	-4(%rbp), %esi
	movl	%esi, -4(%rbp)
	movq	-16(%rbp), %rax
	movl	3996(%rax), %esi
	addl	-4(%rbp), %esi
	movl	%esi, -4(%rbp)
	callq	_mach_absolute_time
	movq	%rax, -32(%rbp)
	movq	-16(%rbp), %rax
	movq	%rax, %rdi
	callq	_free
	leaq	L_.str(%rip), %rdi
	movl	-4(%rbp), %esi
	movq	-32(%rbp), %rax
	subq	-24(%rbp), %rax
	movq	%rax, %rdx
	movb	$0, %al
	callq	_printf
	movl	%eax, -44(%rbp)         ## 4-byte Spill
	addq	$48, %rsp
	popq	%rbp
	retq
	.cfi_endproc

	.globl	_add_overhead
	.align	4, 0x90
_add_overhead:                          ## @add_overhead
	.cfi_startproc
## BB#0:
	pushq	%rbp
Ltmp3:
	.cfi_def_cfa_offset 16
Ltmp4:
	.cfi_offset %rbp, -16
	movq	%rsp, %rbp
Ltmp5:
	.cfi_def_cfa_register %rbp
	subq	$32, %rsp
	movl	$0, -4(%rbp)
	callq	_mach_absolute_time
	movq	%rax, -16(%rbp)
	movl	-4(%rbp), %ecx
	addl	$5, %ecx
	movl	%ecx, -4(%rbp)
	movl	-4(%rbp), %ecx
	addl	$5, %ecx
	movl	%ecx, -4(%rbp)
	movl	-4(%rbp), %ecx
	addl	$5, %ecx
	movl	%ecx, -4(%rbp)
	movl	-4(%rbp), %ecx
	addl	$5, %ecx
	movl	%ecx, -4(%rbp)
	movl	-4(%rbp), %ecx
	addl	$5, %ecx
	movl	%ecx, -4(%rbp)
	movl	-4(%rbp), %ecx
	addl	$5, %ecx
	movl	%ecx, -4(%rbp)
	movl	-4(%rbp), %ecx
	addl	$5, %ecx
	movl	%ecx, -4(%rbp)
	movl	-4(%rbp), %ecx
	addl	$5, %ecx
	movl	%ecx, -4(%rbp)
	movl	-4(%rbp), %ecx
	addl	$5, %ecx
	movl	%ecx, -4(%rbp)
	movl	-4(%rbp), %ecx
	addl	$5, %ecx
	movl	%ecx, -4(%rbp)
	movl	-4(%rbp), %ecx
	addl	$5, %ecx
	movl	%ecx, -4(%rbp)
	movl	-4(%rbp), %ecx
	addl	$5, %ecx
	movl	%ecx, -4(%rbp)
	movl	-4(%rbp), %ecx
	addl	$5, %ecx
	movl	%ecx, -4(%rbp)
	movl	-4(%rbp), %ecx
	addl	$5, %ecx
	movl	%ecx, -4(%rbp)
	movl	-4(%rbp), %ecx
	addl	$5, %ecx
	movl	%ecx, -4(%rbp)
	movl	-4(%rbp), %ecx
	addl	$5, %ecx
	movl	%ecx, -4(%rbp)
	movl	-4(%rbp), %ecx
	addl	$5, %ecx
	movl	%ecx, -4(%rbp)
	movl	-4(%rbp), %ecx
	addl	$5, %ecx
	movl	%ecx, -4(%rbp)
	movl	-4(%rbp), %ecx
	addl	$5, %ecx
	movl	%ecx, -4(%rbp)
	movl	-4(%rbp), %ecx
	addl	$5, %ecx
	movl	%ecx, -4(%rbp)
	movl	-4(%rbp), %ecx
	addl	$5, %ecx
	movl	%ecx, -4(%rbp)
	movl	-4(%rbp), %ecx
	addl	$5, %ecx
	movl	%ecx, -4(%rbp)
	movl	-4(%rbp), %ecx
	addl	$5, %ecx
	movl	%ecx, -4(%rbp)
	movl	-4(%rbp), %ecx
	addl	$5, %ecx
	movl	%ecx, -4(%rbp)
	movl	-4(%rbp), %ecx
	addl	$5, %ecx
	movl	%ecx, -4(%rbp)
	movl	-4(%rbp), %ecx
	addl	$5, %ecx
	movl	%ecx, -4(%rbp)
	movl	-4(%rbp), %ecx
	addl	$5, %ecx
	movl	%ecx, -4(%rbp)
	movl	-4(%rbp), %ecx
	addl	$5, %ecx
	movl	%ecx, -4(%rbp)
	movl	-4(%rbp), %ecx
	addl	$5, %ecx
	movl	%ecx, -4(%rbp)
	movl	-4(%rbp), %ecx
	addl	$5, %ecx
	movl	%ecx, -4(%rbp)
	movl	-4(%rbp), %ecx
	addl	$5, %ecx
	movl	%ecx, -4(%rbp)
	movl	-4(%rbp), %ecx
	addl	$5, %ecx
	movl	%ecx, -4(%rbp)
	movl	-4(%rbp), %ecx
	addl	$5, %ecx
	movl	%ecx, -4(%rbp)
	movl	-4(%rbp), %ecx
	addl	$5, %ecx
	movl	%ecx, -4(%rbp)
	movl	-4(%rbp), %ecx
	addl	$5, %ecx
	movl	%ecx, -4(%rbp)
	movl	-4(%rbp), %ecx
	addl	$5, %ecx
	movl	%ecx, -4(%rbp)
	movl	-4(%rbp), %ecx
	addl	$5, %ecx
	movl	%ecx, -4(%rbp)
	movl	-4(%rbp), %ecx
	addl	$5, %ecx
	movl	%ecx, -4(%rbp)
	movl	-4(%rbp), %ecx
	addl	$5, %ecx
	movl	%ecx, -4(%rbp)
	movl	-4(%rbp), %ecx
	addl	$5, %ecx
	movl	%ecx, -4(%rbp)
	movl	-4(%rbp), %ecx
	addl	$5, %ecx
	movl	%ecx, -4(%rbp)
	movl	-4(%rbp), %ecx
	addl	$5, %ecx
	movl	%ecx, -4(%rbp)
	movl	-4(%rbp), %ecx
	addl	$5, %ecx
	movl	%ecx, -4(%rbp)
	movl	-4(%rbp), %ecx
	addl	$5, %ecx
	movl	%ecx, -4(%rbp)
	movl	-4(%rbp), %ecx
	addl	$5, %ecx
	movl	%ecx, -4(%rbp)
	movl	-4(%rbp), %ecx
	addl	$5, %ecx
	movl	%ecx, -4(%rbp)
	movl	-4(%rbp), %ecx
	addl	$5, %ecx
	movl	%ecx, -4(%rbp)
	movl	-4(%rbp), %ecx
	addl	$5, %ecx
	movl	%ecx, -4(%rbp)
	movl	-4(%rbp), %ecx
	addl	$5, %ecx
	movl	%ecx, -4(%rbp)
	movl	-4(%rbp), %ecx
	addl	$5, %ecx
	movl	%ecx, -4(%rbp)
	movl	-4(%rbp), %ecx
	addl	$5, %ecx
	movl	%ecx, -4(%rbp)
	movl	-4(%rbp), %ecx
	addl	$5, %ecx
	movl	%ecx, -4(%rbp)
	movl	-4(%rbp), %ecx
	addl	$5, %ecx
	movl	%ecx, -4(%rbp)
	movl	-4(%rbp), %ecx
	addl	$5, %ecx
	movl	%ecx, -4(%rbp)
	movl	-4(%rbp), %ecx
	addl	$5, %ecx
	movl	%ecx, -4(%rbp)
	movl	-4(%rbp), %ecx
	addl	$5, %ecx
	movl	%ecx, -4(%rbp)
	movl	-4(%rbp), %ecx
	addl	$5, %ecx
	movl	%ecx, -4(%rbp)
	movl	-4(%rbp), %ecx
	addl	$5, %ecx
	movl	%ecx, -4(%rbp)
	movl	-4(%rbp), %ecx
	addl	$5, %ecx
	movl	%ecx, -4(%rbp)
	movl	-4(%rbp), %ecx
	addl	$5, %ecx
	movl	%ecx, -4(%rbp)
	movl	-4(%rbp), %ecx
	addl	$5, %ecx
	movl	%ecx, -4(%rbp)
	movl	-4(%rbp), %ecx
	addl	$5, %ecx
	movl	%ecx, -4(%rbp)
	movl	-4(%rbp), %ecx
	addl	$5, %ecx
	movl	%ecx, -4(%rbp)
	movl	-4(%rbp), %ecx
	addl	$5, %ecx
	movl	%ecx, -4(%rbp)
	movl	-4(%rbp), %ecx
	addl	$5, %ecx
	movl	%ecx, -4(%rbp)
	movl	-4(%rbp), %ecx
	addl	$5, %ecx
	movl	%ecx, -4(%rbp)
	movl	-4(%rbp), %ecx
	addl	$5, %ecx
	movl	%ecx, -4(%rbp)
	movl	-4(%rbp), %ecx
	addl	$5, %ecx
	movl	%ecx, -4(%rbp)
	movl	-4(%rbp), %ecx
	addl	$5, %ecx
	movl	%ecx, -4(%rbp)
	movl	-4(%rbp), %ecx
	addl	$5, %ecx
	movl	%ecx, -4(%rbp)
	movl	-4(%rbp), %ecx
	addl	$5, %ecx
	movl	%ecx, -4(%rbp)
	movl	-4(%rbp), %ecx
	addl	$5, %ecx
	movl	%ecx, -4(%rbp)
	movl	-4(%rbp), %ecx
	addl	$5, %ecx
	movl	%ecx, -4(%rbp)
	movl	-4(%rbp), %ecx
	addl	$5, %ecx
	movl	%ecx, -4(%rbp)
	movl	-4(%rbp), %ecx
	addl	$5, %ecx
	movl	%ecx, -4(%rbp)
	movl	-4(%rbp), %ecx
	addl	$5, %ecx
	movl	%ecx, -4(%rbp)
	movl	-4(%rbp), %ecx
	addl	$5, %ecx
	movl	%ecx, -4(%rbp)
	movl	-4(%rbp), %ecx
	addl	$5, %ecx
	movl	%ecx, -4(%rbp)
	movl	-4(%rbp), %ecx
	addl	$5, %ecx
	movl	%ecx, -4(%rbp)
	movl	-4(%rbp), %ecx
	addl	$5, %ecx
	movl	%ecx, -4(%rbp)
	movl	-4(%rbp), %ecx
	addl	$5, %ecx
	movl	%ecx, -4(%rbp)
	movl	-4(%rbp), %ecx
	addl	$5, %ecx
	movl	%ecx, -4(%rbp)
	movl	-4(%rbp), %ecx
	addl	$5, %ecx
	movl	%ecx, -4(%rbp)
	movl	-4(%rbp), %ecx
	addl	$5, %ecx
	movl	%ecx, -4(%rbp)
	movl	-4(%rbp), %ecx
	addl	$5, %ecx
	movl	%ecx, -4(%rbp)
	movl	-4(%rbp), %ecx
	addl	$5, %ecx
	movl	%ecx, -4(%rbp)
	movl	-4(%rbp), %ecx
	addl	$5, %ecx
	movl	%ecx, -4(%rbp)
	movl	-4(%rbp), %ecx
	addl	$5, %ecx
	movl	%ecx, -4(%rbp)
	movl	-4(%rbp), %ecx
	addl	$5, %ecx
	movl	%ecx, -4(%rbp)
	movl	-4(%rbp), %ecx
	addl	$5, %ecx
	movl	%ecx, -4(%rbp)
	movl	-4(%rbp), %ecx
	addl	$5, %ecx
	movl	%ecx, -4(%rbp)
	movl	-4(%rbp), %ecx
	addl	$5, %ecx
	movl	%ecx, -4(%rbp)
	movl	-4(%rbp), %ecx
	addl	$5, %ecx
	movl	%ecx, -4(%rbp)
	movl	-4(%rbp), %ecx
	addl	$5, %ecx
	movl	%ecx, -4(%rbp)
	movl	-4(%rbp), %ecx
	addl	$5, %ecx
	movl	%ecx, -4(%rbp)
	movl	-4(%rbp), %ecx
	addl	$5, %ecx
	movl	%ecx, -4(%rbp)
	movl	-4(%rbp), %ecx
	addl	$5, %ecx
	movl	%ecx, -4(%rbp)
	movl	-4(%rbp), %ecx
	addl	$5, %ecx
	movl	%ecx, -4(%rbp)
	movl	-4(%rbp), %ecx
	addl	$5, %ecx
	movl	%ecx, -4(%rbp)
	movl	-4(%rbp), %ecx
	addl	$5, %ecx
	movl	%ecx, -4(%rbp)
	movl	-4(%rbp), %ecx
	addl	$5, %ecx
	movl	%ecx, -4(%rbp)
	movl	-4(%rbp), %ecx
	addl	$5, %ecx
	movl	%ecx, -4(%rbp)
	movl	-4(%rbp), %ecx
	addl	$5, %ecx
	movl	%ecx, -4(%rbp)
	movl	-4(%rbp), %ecx
	addl	$5, %ecx
	movl	%ecx, -4(%rbp)
	movl	-4(%rbp), %ecx
	addl	$5, %ecx
	movl	%ecx, -4(%rbp)
	movl	-4(%rbp), %ecx
	addl	$5, %ecx
	movl	%ecx, -4(%rbp)
	movl	-4(%rbp), %ecx
	addl	$5, %ecx
	movl	%ecx, -4(%rbp)
	movl	-4(%rbp), %ecx
	addl	$5, %ecx
	movl	%ecx, -4(%rbp)
	movl	-4(%rbp), %ecx
	addl	$5, %ecx
	movl	%ecx, -4(%rbp)
	movl	-4(%rbp), %ecx
	addl	$5, %ecx
	movl	%ecx, -4(%rbp)
	movl	-4(%rbp), %ecx
	addl	$5, %ecx
	movl	%ecx, -4(%rbp)
	movl	-4(%rbp), %ecx
	addl	$5, %ecx
	movl	%ecx, -4(%rbp)
	movl	-4(%rbp), %ecx
	addl	$5, %ecx
	movl	%ecx, -4(%rbp)
	movl	-4(%rbp), %ecx
	addl	$5, %ecx
	movl	%ecx, -4(%rbp)
	movl	-4(%rbp), %ecx
	addl	$5, %ecx
	movl	%ecx, -4(%rbp)
	movl	-4(%rbp), %ecx
	addl	$5, %ecx
	movl	%ecx, -4(%rbp)
	movl	-4(%rbp), %ecx
	addl	$5, %ecx
	movl	%ecx, -4(%rbp)
	movl	-4(%rbp), %ecx
	addl	$5, %ecx
	movl	%ecx, -4(%rbp)
	movl	-4(%rbp), %ecx
	addl	$5, %ecx
	movl	%ecx, -4(%rbp)
	movl	-4(%rbp), %ecx
	addl	$5, %ecx
	movl	%ecx, -4(%rbp)
	movl	-4(%rbp), %ecx
	addl	$5, %ecx
	movl	%ecx, -4(%rbp)
	movl	-4(%rbp), %ecx
	addl	$5, %ecx
	movl	%ecx, -4(%rbp)
	movl	-4(%rbp), %ecx
	addl	$5, %ecx
	movl	%ecx, -4(%rbp)
	movl	-4(%rbp), %ecx
	addl	$5, %ecx
	movl	%ecx, -4(%rbp)
	movl	-4(%rbp), %ecx
	addl	$5, %ecx
	movl	%ecx, -4(%rbp)
	movl	-4(%rbp), %ecx
	addl	$5, %ecx
	movl	%ecx, -4(%rbp)
	movl	-4(%rbp), %ecx
	addl	$5, %ecx
	movl	%ecx, -4(%rbp)
	movl	-4(%rbp), %ecx
	addl	$5, %ecx
	movl	%ecx, -4(%rbp)
	movl	-4(%rbp), %ecx
	addl	$5, %ecx
	movl	%ecx, -4(%rbp)
	movl	-4(%rbp), %ecx
	addl	$5, %ecx
	movl	%ecx, -4(%rbp)
	movl	-4(%rbp), %ecx
	addl	$5, %ecx
	movl	%ecx, -4(%rbp)
	movl	-4(%rbp), %ecx
	addl	$5, %ecx
	movl	%ecx, -4(%rbp)
	movl	-4(%rbp), %ecx
	addl	$5, %ecx
	movl	%ecx, -4(%rbp)
	movl	-4(%rbp), %ecx
	addl	$5, %ecx
	movl	%ecx, -4(%rbp)
	movl	-4(%rbp), %ecx
	addl	$5, %ecx
	movl	%ecx, -4(%rbp)
	movl	-4(%rbp), %ecx
	addl	$5, %ecx
	movl	%ecx, -4(%rbp)
	movl	-4(%rbp), %ecx
	addl	$5, %ecx
	movl	%ecx, -4(%rbp)
	movl	-4(%rbp), %ecx
	addl	$5, %ecx
	movl	%ecx, -4(%rbp)
	movl	-4(%rbp), %ecx
	addl	$5, %ecx
	movl	%ecx, -4(%rbp)
	movl	-4(%rbp), %ecx
	addl	$5, %ecx
	movl	%ecx, -4(%rbp)
	movl	-4(%rbp), %ecx
	addl	$5, %ecx
	movl	%ecx, -4(%rbp)
	movl	-4(%rbp), %ecx
	addl	$5, %ecx
	movl	%ecx, -4(%rbp)
	movl	-4(%rbp), %ecx
	addl	$5, %ecx
	movl	%ecx, -4(%rbp)
	movl	-4(%rbp), %ecx
	addl	$5, %ecx
	movl	%ecx, -4(%rbp)
	movl	-4(%rbp), %ecx
	addl	$5, %ecx
	movl	%ecx, -4(%rbp)
	movl	-4(%rbp), %ecx
	addl	$5, %ecx
	movl	%ecx, -4(%rbp)
	movl	-4(%rbp), %ecx
	addl	$5, %ecx
	movl	%ecx, -4(%rbp)
	movl	-4(%rbp), %ecx
	addl	$5, %ecx
	movl	%ecx, -4(%rbp)
	movl	-4(%rbp), %ecx
	addl	$5, %ecx
	movl	%ecx, -4(%rbp)
	movl	-4(%rbp), %ecx
	addl	$5, %ecx
	movl	%ecx, -4(%rbp)
	movl	-4(%rbp), %ecx
	addl	$5, %ecx
	movl	%ecx, -4(%rbp)
	movl	-4(%rbp), %ecx
	addl	$5, %ecx
	movl	%ecx, -4(%rbp)
	movl	-4(%rbp), %ecx
	addl	$5, %ecx
	movl	%ecx, -4(%rbp)
	movl	-4(%rbp), %ecx
	addl	$5, %ecx
	movl	%ecx, -4(%rbp)
	movl	-4(%rbp), %ecx
	addl	$5, %ecx
	movl	%ecx, -4(%rbp)
	movl	-4(%rbp), %ecx
	addl	$5, %ecx
	movl	%ecx, -4(%rbp)
	movl	-4(%rbp), %ecx
	addl	$5, %ecx
	movl	%ecx, -4(%rbp)
	movl	-4(%rbp), %ecx
	addl	$5, %ecx
	movl	%ecx, -4(%rbp)
	movl	-4(%rbp), %ecx
	addl	$5, %ecx
	movl	%ecx, -4(%rbp)
	movl	-4(%rbp), %ecx
	addl	$5, %ecx
	movl	%ecx, -4(%rbp)
	movl	-4(%rbp), %ecx
	addl	$5, %ecx
	movl	%ecx, -4(%rbp)
	movl	-4(%rbp), %ecx
	addl	$5, %ecx
	movl	%ecx, -4(%rbp)
	movl	-4(%rbp), %ecx
	addl	$5, %ecx
	movl	%ecx, -4(%rbp)
	movl	-4(%rbp), %ecx
	addl	$5, %ecx
	movl	%ecx, -4(%rbp)
	movl	-4(%rbp), %ecx
	addl	$5, %ecx
	movl	%ecx, -4(%rbp)
	movl	-4(%rbp), %ecx
	addl	$5, %ecx
	movl	%ecx, -4(%rbp)
	movl	-4(%rbp), %ecx
	addl	$5, %ecx
	movl	%ecx, -4(%rbp)
	movl	-4(%rbp), %ecx
	addl	$5, %ecx
	movl	%ecx, -4(%rbp)
	movl	-4(%rbp), %ecx
	addl	$5, %ecx
	movl	%ecx, -4(%rbp)
	movl	-4(%rbp), %ecx
	addl	$5, %ecx
	movl	%ecx, -4(%rbp)
	movl	-4(%rbp), %ecx
	addl	$5, %ecx
	movl	%ecx, -4(%rbp)
	movl	-4(%rbp), %ecx
	addl	$5, %ecx
	movl	%ecx, -4(%rbp)
	movl	-4(%rbp), %ecx
	addl	$5, %ecx
	movl	%ecx, -4(%rbp)
	movl	-4(%rbp), %ecx
	addl	$5, %ecx
	movl	%ecx, -4(%rbp)
	movl	-4(%rbp), %ecx
	addl	$5, %ecx
	movl	%ecx, -4(%rbp)
	movl	-4(%rbp), %ecx
	addl	$5, %ecx
	movl	%ecx, -4(%rbp)
	movl	-4(%rbp), %ecx
	addl	$5, %ecx
	movl	%ecx, -4(%rbp)
	movl	-4(%rbp), %ecx
	addl	$5, %ecx
	movl	%ecx, -4(%rbp)
	movl	-4(%rbp), %ecx
	addl	$5, %ecx
	movl	%ecx, -4(%rbp)
	movl	-4(%rbp), %ecx
	addl	$5, %ecx
	movl	%ecx, -4(%rbp)
	movl	-4(%rbp), %ecx
	addl	$5, %ecx
	movl	%ecx, -4(%rbp)
	movl	-4(%rbp), %ecx
	addl	$5, %ecx
	movl	%ecx, -4(%rbp)
	movl	-4(%rbp), %ecx
	addl	$5, %ecx
	movl	%ecx, -4(%rbp)
	movl	-4(%rbp), %ecx
	addl	$5, %ecx
	movl	%ecx, -4(%rbp)
	movl	-4(%rbp), %ecx
	addl	$5, %ecx
	movl	%ecx, -4(%rbp)
	movl	-4(%rbp), %ecx
	addl	$5, %ecx
	movl	%ecx, -4(%rbp)
	movl	-4(%rbp), %ecx
	addl	$5, %ecx
	movl	%ecx, -4(%rbp)
	movl	-4(%rbp), %ecx
	addl	$5, %ecx
	movl	%ecx, -4(%rbp)
	movl	-4(%rbp), %ecx
	addl	$5, %ecx
	movl	%ecx, -4(%rbp)
	movl	-4(%rbp), %ecx
	addl	$5, %ecx
	movl	%ecx, -4(%rbp)
	movl	-4(%rbp), %ecx
	addl	$5, %ecx
	movl	%ecx, -4(%rbp)
	movl	-4(%rbp), %ecx
	addl	$5, %ecx
	movl	%ecx, -4(%rbp)
	movl	-4(%rbp), %ecx
	addl	$5, %ecx
	movl	%ecx, -4(%rbp)
	movl	-4(%rbp), %ecx
	addl	$5, %ecx
	movl	%ecx, -4(%rbp)
	movl	-4(%rbp), %ecx
	addl	$5, %ecx
	movl	%ecx, -4(%rbp)
	movl	-4(%rbp), %ecx
	addl	$5, %ecx
	movl	%ecx, -4(%rbp)
	movl	-4(%rbp), %ecx
	addl	$5, %ecx
	movl	%ecx, -4(%rbp)
	movl	-4(%rbp), %ecx
	addl	$5, %ecx
	movl	%ecx, -4(%rbp)
	movl	-4(%rbp), %ecx
	addl	$5, %ecx
	movl	%ecx, -4(%rbp)
	movl	-4(%rbp), %ecx
	addl	$5, %ecx
	movl	%ecx, -4(%rbp)
	movl	-4(%rbp), %ecx
	addl	$5, %ecx
	movl	%ecx, -4(%rbp)
	movl	-4(%rbp), %ecx
	addl	$5, %ecx
	movl	%ecx, -4(%rbp)
	movl	-4(%rbp), %ecx
	addl	$5, %ecx
	movl	%ecx, -4(%rbp)
	movl	-4(%rbp), %ecx
	addl	$5, %ecx
	movl	%ecx, -4(%rbp)
	movl	-4(%rbp), %ecx
	addl	$5, %ecx
	movl	%ecx, -4(%rbp)
	movl	-4(%rbp), %ecx
	addl	$5, %ecx
	movl	%ecx, -4(%rbp)
	movl	-4(%rbp), %ecx
	addl	$5, %ecx
	movl	%ecx, -4(%rbp)
	movl	-4(%rbp), %ecx
	addl	$5, %ecx
	movl	%ecx, -4(%rbp)
	movl	-4(%rbp), %ecx
	addl	$5, %ecx
	movl	%ecx, -4(%rbp)
	movl	-4(%rbp), %ecx
	addl	$5, %ecx
	movl	%ecx, -4(%rbp)
	movl	-4(%rbp), %ecx
	addl	$5, %ecx
	movl	%ecx, -4(%rbp)
	movl	-4(%rbp), %ecx
	addl	$5, %ecx
	movl	%ecx, -4(%rbp)
	movl	-4(%rbp), %ecx
	addl	$5, %ecx
	movl	%ecx, -4(%rbp)
	movl	-4(%rbp), %ecx
	addl	$5, %ecx
	movl	%ecx, -4(%rbp)
	movl	-4(%rbp), %ecx
	addl	$5, %ecx
	movl	%ecx, -4(%rbp)
	movl	-4(%rbp), %ecx
	addl	$5, %ecx
	movl	%ecx, -4(%rbp)
	movl	-4(%rbp), %ecx
	addl	$5, %ecx
	movl	%ecx, -4(%rbp)
	movl	-4(%rbp), %ecx
	addl	$5, %ecx
	movl	%ecx, -4(%rbp)
	movl	-4(%rbp), %ecx
	addl	$5, %ecx
	movl	%ecx, -4(%rbp)
	movl	-4(%rbp), %ecx
	addl	$5, %ecx
	movl	%ecx, -4(%rbp)
	movl	-4(%rbp), %ecx
	addl	$5, %ecx
	movl	%ecx, -4(%rbp)
	movl	-4(%rbp), %ecx
	addl	$5, %ecx
	movl	%ecx, -4(%rbp)
	movl	-4(%rbp), %ecx
	addl	$5, %ecx
	movl	%ecx, -4(%rbp)
	movl	-4(%rbp), %ecx
	addl	$5, %ecx
	movl	%ecx, -4(%rbp)
	movl	-4(%rbp), %ecx
	addl	$5, %ecx
	movl	%ecx, -4(%rbp)
	movl	-4(%rbp), %ecx
	addl	$5, %ecx
	movl	%ecx, -4(%rbp)
	movl	-4(%rbp), %ecx
	addl	$5, %ecx
	movl	%ecx, -4(%rbp)
	movl	-4(%rbp), %ecx
	addl	$5, %ecx
	movl	%ecx, -4(%rbp)
	movl	-4(%rbp), %ecx
	addl	$5, %ecx
	movl	%ecx, -4(%rbp)
	movl	-4(%rbp), %ecx
	addl	$5, %ecx
	movl	%ecx, -4(%rbp)
	movl	-4(%rbp), %ecx
	addl	$5, %ecx
	movl	%ecx, -4(%rbp)
	movl	-4(%rbp), %ecx
	addl	$5, %ecx
	movl	%ecx, -4(%rbp)
	movl	-4(%rbp), %ecx
	addl	$5, %ecx
	movl	%ecx, -4(%rbp)
	movl	-4(%rbp), %ecx
	addl	$5, %ecx
	movl	%ecx, -4(%rbp)
	movl	-4(%rbp), %ecx
	addl	$5, %ecx
	movl	%ecx, -4(%rbp)
	movl	-4(%rbp), %ecx
	addl	$5, %ecx
	movl	%ecx, -4(%rbp)
	movl	-4(%rbp), %ecx
	addl	$5, %ecx
	movl	%ecx, -4(%rbp)
	movl	-4(%rbp), %ecx
	addl	$5, %ecx
	movl	%ecx, -4(%rbp)
	movl	-4(%rbp), %ecx
	addl	$5, %ecx
	movl	%ecx, -4(%rbp)
	movl	-4(%rbp), %ecx
	addl	$5, %ecx
	movl	%ecx, -4(%rbp)
	movl	-4(%rbp), %ecx
	addl	$5, %ecx
	movl	%ecx, -4(%rbp)
	movl	-4(%rbp), %ecx
	addl	$5, %ecx
	movl	%ecx, -4(%rbp)
	movl	-4(%rbp), %ecx
	addl	$5, %ecx
	movl	%ecx, -4(%rbp)
	movl	-4(%rbp), %ecx
	addl	$5, %ecx
	movl	%ecx, -4(%rbp)
	movl	-4(%rbp), %ecx
	addl	$5, %ecx
	movl	%ecx, -4(%rbp)
	movl	-4(%rbp), %ecx
	addl	$5, %ecx
	movl	%ecx, -4(%rbp)
	movl	-4(%rbp), %ecx
	addl	$5, %ecx
	movl	%ecx, -4(%rbp)
	movl	-4(%rbp), %ecx
	addl	$5, %ecx
	movl	%ecx, -4(%rbp)
	movl	-4(%rbp), %ecx
	addl	$5, %ecx
	movl	%ecx, -4(%rbp)
	movl	-4(%rbp), %ecx
	addl	$5, %ecx
	movl	%ecx, -4(%rbp)
	movl	-4(%rbp), %ecx
	addl	$5, %ecx
	movl	%ecx, -4(%rbp)
	movl	-4(%rbp), %ecx
	addl	$5, %ecx
	movl	%ecx, -4(%rbp)
	movl	-4(%rbp), %ecx
	addl	$5, %ecx
	movl	%ecx, -4(%rbp)
	movl	-4(%rbp), %ecx
	addl	$5, %ecx
	movl	%ecx, -4(%rbp)
	movl	-4(%rbp), %ecx
	addl	$5, %ecx
	movl	%ecx, -4(%rbp)
	movl	-4(%rbp), %ecx
	addl	$5, %ecx
	movl	%ecx, -4(%rbp)
	movl	-4(%rbp), %ecx
	addl	$5, %ecx
	movl	%ecx, -4(%rbp)
	movl	-4(%rbp), %ecx
	addl	$5, %ecx
	movl	%ecx, -4(%rbp)
	movl	-4(%rbp), %ecx
	addl	$5, %ecx
	movl	%ecx, -4(%rbp)
	movl	-4(%rbp), %ecx
	addl	$5, %ecx
	movl	%ecx, -4(%rbp)
	movl	-4(%rbp), %ecx
	addl	$5, %ecx
	movl	%ecx, -4(%rbp)
	movl	-4(%rbp), %ecx
	addl	$5, %ecx
	movl	%ecx, -4(%rbp)
	movl	-4(%rbp), %ecx
	addl	$5, %ecx
	movl	%ecx, -4(%rbp)
	movl	-4(%rbp), %ecx
	addl	$5, %ecx
	movl	%ecx, -4(%rbp)
	movl	-4(%rbp), %ecx
	addl	$5, %ecx
	movl	%ecx, -4(%rbp)
	movl	-4(%rbp), %ecx
	addl	$5, %ecx
	movl	%ecx, -4(%rbp)
	movl	-4(%rbp), %ecx
	addl	$5, %ecx
	movl	%ecx, -4(%rbp)
	movl	-4(%rbp), %ecx
	addl	$5, %ecx
	movl	%ecx, -4(%rbp)
	movl	-4(%rbp), %ecx
	addl	$5, %ecx
	movl	%ecx, -4(%rbp)
	movl	-4(%rbp), %ecx
	addl	$5, %ecx
	movl	%ecx, -4(%rbp)
	movl	-4(%rbp), %ecx
	addl	$5, %ecx
	movl	%ecx, -4(%rbp)
	movl	-4(%rbp), %ecx
	addl	$5, %ecx
	movl	%ecx, -4(%rbp)
	movl	-4(%rbp), %ecx
	addl	$5, %ecx
	movl	%ecx, -4(%rbp)
	movl	-4(%rbp), %ecx
	addl	$5, %ecx
	movl	%ecx, -4(%rbp)
	movl	-4(%rbp), %ecx
	addl	$5, %ecx
	movl	%ecx, -4(%rbp)
	movl	-4(%rbp), %ecx
	addl	$5, %ecx
	movl	%ecx, -4(%rbp)
	movl	-4(%rbp), %ecx
	addl	$5, %ecx
	movl	%ecx, -4(%rbp)
	movl	-4(%rbp), %ecx
	addl	$5, %ecx
	movl	%ecx, -4(%rbp)
	movl	-4(%rbp), %ecx
	addl	$5, %ecx
	movl	%ecx, -4(%rbp)
	movl	-4(%rbp), %ecx
	addl	$5, %ecx
	movl	%ecx, -4(%rbp)
	movl	-4(%rbp), %ecx
	addl	$5, %ecx
	movl	%ecx, -4(%rbp)
	movl	-4(%rbp), %ecx
	addl	$5, %ecx
	movl	%ecx, -4(%rbp)
	movl	-4(%rbp), %ecx
	addl	$5, %ecx
	movl	%ecx, -4(%rbp)
	movl	-4(%rbp), %ecx
	addl	$5, %ecx
	movl	%ecx, -4(%rbp)
	movl	-4(%rbp), %ecx
	addl	$5, %ecx
	movl	%ecx, -4(%rbp)
	movl	-4(%rbp), %ecx
	addl	$5, %ecx
	movl	%ecx, -4(%rbp)
	movl	-4(%rbp), %ecx
	addl	$5, %ecx
	movl	%ecx, -4(%rbp)
	movl	-4(%rbp), %ecx
	addl	$5, %ecx
	movl	%ecx, -4(%rbp)
	movl	-4(%rbp), %ecx
	addl	$5, %ecx
	movl	%ecx, -4(%rbp)
	movl	-4(%rbp), %ecx
	addl	$5, %ecx
	movl	%ecx, -4(%rbp)
	movl	-4(%rbp), %ecx
	addl	$5, %ecx
	movl	%ecx, -4(%rbp)
	movl	-4(%rbp), %ecx
	addl	$5, %ecx
	movl	%ecx, -4(%rbp)
	movl	-4(%rbp), %ecx
	addl	$5, %ecx
	movl	%ecx, -4(%rbp)
	movl	-4(%rbp), %ecx
	addl	$5, %ecx
	movl	%ecx, -4(%rbp)
	movl	-4(%rbp), %ecx
	addl	$5, %ecx
	movl	%ecx, -4(%rbp)
	movl	-4(%rbp), %ecx
	addl	$5, %ecx
	movl	%ecx, -4(%rbp)
	movl	-4(%rbp), %ecx
	addl	$5, %ecx
	movl	%ecx, -4(%rbp)
	movl	-4(%rbp), %ecx
	addl	$5, %ecx
	movl	%ecx, -4(%rbp)
	movl	-4(%rbp), %ecx
	addl	$5, %ecx
	movl	%ecx, -4(%rbp)
	movl	-4(%rbp), %ecx
	addl	$5, %ecx
	movl	%ecx, -4(%rbp)
	movl	-4(%rbp), %ecx
	addl	$5, %ecx
	movl	%ecx, -4(%rbp)
	movl	-4(%rbp), %ecx
	addl	$5, %ecx
	movl	%ecx, -4(%rbp)
	movl	-4(%rbp), %ecx
	addl	$5, %ecx
	movl	%ecx, -4(%rbp)
	movl	-4(%rbp), %ecx
	addl	$5, %ecx
	movl	%ecx, -4(%rbp)
	movl	-4(%rbp), %ecx
	addl	$5, %ecx
	movl	%ecx, -4(%rbp)
	movl	-4(%rbp), %ecx
	addl	$5, %ecx
	movl	%ecx, -4(%rbp)
	movl	-4(%rbp), %ecx
	addl	$5, %ecx
	movl	%ecx, -4(%rbp)
	movl	-4(%rbp), %ecx
	addl	$5, %ecx
	movl	%ecx, -4(%rbp)
	movl	-4(%rbp), %ecx
	addl	$5, %ecx
	movl	%ecx, -4(%rbp)
	movl	-4(%rbp), %ecx
	addl	$5, %ecx
	movl	%ecx, -4(%rbp)
	movl	-4(%rbp), %ecx
	addl	$5, %ecx
	movl	%ecx, -4(%rbp)
	movl	-4(%rbp), %ecx
	addl	$5, %ecx
	movl	%ecx, -4(%rbp)
	movl	-4(%rbp), %ecx
	addl	$5, %ecx
	movl	%ecx, -4(%rbp)
	movl	-4(%rbp), %ecx
	addl	$5, %ecx
	movl	%ecx, -4(%rbp)
	movl	-4(%rbp), %ecx
	addl	$5, %ecx
	movl	%ecx, -4(%rbp)
	movl	-4(%rbp), %ecx
	addl	$5, %ecx
	movl	%ecx, -4(%rbp)
	movl	-4(%rbp), %ecx
	addl	$5, %ecx
	movl	%ecx, -4(%rbp)
	movl	-4(%rbp), %ecx
	addl	$5, %ecx
	movl	%ecx, -4(%rbp)
	movl	-4(%rbp), %ecx
	addl	$5, %ecx
	movl	%ecx, -4(%rbp)
	movl	-4(%rbp), %ecx
	addl	$5, %ecx
	movl	%ecx, -4(%rbp)
	movl	-4(%rbp), %ecx
	addl	$5, %ecx
	movl	%ecx, -4(%rbp)
	movl	-4(%rbp), %ecx
	addl	$5, %ecx
	movl	%ecx, -4(%rbp)
	movl	-4(%rbp), %ecx
	addl	$5, %ecx
	movl	%ecx, -4(%rbp)
	movl	-4(%rbp), %ecx
	addl	$5, %ecx
	movl	%ecx, -4(%rbp)
	movl	-4(%rbp), %ecx
	addl	$5, %ecx
	movl	%ecx, -4(%rbp)
	movl	-4(%rbp), %ecx
	addl	$5, %ecx
	movl	%ecx, -4(%rbp)
	movl	-4(%rbp), %ecx
	addl	$5, %ecx
	movl	%ecx, -4(%rbp)
	movl	-4(%rbp), %ecx
	addl	$5, %ecx
	movl	%ecx, -4(%rbp)
	movl	-4(%rbp), %ecx
	addl	$5, %ecx
	movl	%ecx, -4(%rbp)
	movl	-4(%rbp), %ecx
	addl	$5, %ecx
	movl	%ecx, -4(%rbp)
	movl	-4(%rbp), %ecx
	addl	$5, %ecx
	movl	%ecx, -4(%rbp)
	movl	-4(%rbp), %ecx
	addl	$5, %ecx
	movl	%ecx, -4(%rbp)
	movl	-4(%rbp), %ecx
	addl	$5, %ecx
	movl	%ecx, -4(%rbp)
	movl	-4(%rbp), %ecx
	addl	$5, %ecx
	movl	%ecx, -4(%rbp)
	movl	-4(%rbp), %ecx
	addl	$5, %ecx
	movl	%ecx, -4(%rbp)
	movl	-4(%rbp), %ecx
	addl	$5, %ecx
	movl	%ecx, -4(%rbp)
	movl	-4(%rbp), %ecx
	addl	$5, %ecx
	movl	%ecx, -4(%rbp)
	movl	-4(%rbp), %ecx
	addl	$5, %ecx
	movl	%ecx, -4(%rbp)
	movl	-4(%rbp), %ecx
	addl	$5, %ecx
	movl	%ecx, -4(%rbp)
	movl	-4(%rbp), %ecx
	addl	$5, %ecx
	movl	%ecx, -4(%rbp)
	movl	-4(%rbp), %ecx
	addl	$5, %ecx
	movl	%ecx, -4(%rbp)
	movl	-4(%rbp), %ecx
	addl	$5, %ecx
	movl	%ecx, -4(%rbp)
	movl	-4(%rbp), %ecx
	addl	$5, %ecx
	movl	%ecx, -4(%rbp)
	movl	-4(%rbp), %ecx
	addl	$5, %ecx
	movl	%ecx, -4(%rbp)
	movl	-4(%rbp), %ecx
	addl	$5, %ecx
	movl	%ecx, -4(%rbp)
	movl	-4(%rbp), %ecx
	addl	$5, %ecx
	movl	%ecx, -4(%rbp)
	movl	-4(%rbp), %ecx
	addl	$5, %ecx
	movl	%ecx, -4(%rbp)
	movl	-4(%rbp), %ecx
	addl	$5, %ecx
	movl	%ecx, -4(%rbp)
	movl	-4(%rbp), %ecx
	addl	$5, %ecx
	movl	%ecx, -4(%rbp)
	movl	-4(%rbp), %ecx
	addl	$5, %ecx
	movl	%ecx, -4(%rbp)
	movl	-4(%rbp), %ecx
	addl	$5, %ecx
	movl	%ecx, -4(%rbp)
	movl	-4(%rbp), %ecx
	addl	$5, %ecx
	movl	%ecx, -4(%rbp)
	movl	-4(%rbp), %ecx
	addl	$5, %ecx
	movl	%ecx, -4(%rbp)
	movl	-4(%rbp), %ecx
	addl	$5, %ecx
	movl	%ecx, -4(%rbp)
	movl	-4(%rbp), %ecx
	addl	$5, %ecx
	movl	%ecx, -4(%rbp)
	movl	-4(%rbp), %ecx
	addl	$5, %ecx
	movl	%ecx, -4(%rbp)
	movl	-4(%rbp), %ecx
	addl	$5, %ecx
	movl	%ecx, -4(%rbp)
	movl	-4(%rbp), %ecx
	addl	$5, %ecx
	movl	%ecx, -4(%rbp)
	movl	-4(%rbp), %ecx
	addl	$5, %ecx
	movl	%ecx, -4(%rbp)
	movl	-4(%rbp), %ecx
	addl	$5, %ecx
	movl	%ecx, -4(%rbp)
	movl	-4(%rbp), %ecx
	addl	$5, %ecx
	movl	%ecx, -4(%rbp)
	movl	-4(%rbp), %ecx
	addl	$5, %ecx
	movl	%ecx, -4(%rbp)
	movl	-4(%rbp), %ecx
	addl	$5, %ecx
	movl	%ecx, -4(%rbp)
	movl	-4(%rbp), %ecx
	addl	$5, %ecx
	movl	%ecx, -4(%rbp)
	movl	-4(%rbp), %ecx
	addl	$5, %ecx
	movl	%ecx, -4(%rbp)
	movl	-4(%rbp), %ecx
	addl	$5, %ecx
	movl	%ecx, -4(%rbp)
	movl	-4(%rbp), %ecx
	addl	$5, %ecx
	movl	%ecx, -4(%rbp)
	movl	-4(%rbp), %ecx
	addl	$5, %ecx
	movl	%ecx, -4(%rbp)
	movl	-4(%rbp), %ecx
	addl	$5, %ecx
	movl	%ecx, -4(%rbp)
	movl	-4(%rbp), %ecx
	addl	$5, %ecx
	movl	%ecx, -4(%rbp)
	movl	-4(%rbp), %ecx
	addl	$5, %ecx
	movl	%ecx, -4(%rbp)
	movl	-4(%rbp), %ecx
	addl	$5, %ecx
	movl	%ecx, -4(%rbp)
	movl	-4(%rbp), %ecx
	addl	$5, %ecx
	movl	%ecx, -4(%rbp)
	movl	-4(%rbp), %ecx
	addl	$5, %ecx
	movl	%ecx, -4(%rbp)
	movl	-4(%rbp), %ecx
	addl	$5, %ecx
	movl	%ecx, -4(%rbp)
	movl	-4(%rbp), %ecx
	addl	$5, %ecx
	movl	%ecx, -4(%rbp)
	movl	-4(%rbp), %ecx
	addl	$5, %ecx
	movl	%ecx, -4(%rbp)
	movl	-4(%rbp), %ecx
	addl	$5, %ecx
	movl	%ecx, -4(%rbp)
	movl	-4(%rbp), %ecx
	addl	$5, %ecx
	movl	%ecx, -4(%rbp)
	movl	-4(%rbp), %ecx
	addl	$5, %ecx
	movl	%ecx, -4(%rbp)
	movl	-4(%rbp), %ecx
	addl	$5, %ecx
	movl	%ecx, -4(%rbp)
	movl	-4(%rbp), %ecx
	addl	$5, %ecx
	movl	%ecx, -4(%rbp)
	movl	-4(%rbp), %ecx
	addl	$5, %ecx
	movl	%ecx, -4(%rbp)
	movl	-4(%rbp), %ecx
	addl	$5, %ecx
	movl	%ecx, -4(%rbp)
	movl	-4(%rbp), %ecx
	addl	$5, %ecx
	movl	%ecx, -4(%rbp)
	movl	-4(%rbp), %ecx
	addl	$5, %ecx
	movl	%ecx, -4(%rbp)
	movl	-4(%rbp), %ecx
	addl	$5, %ecx
	movl	%ecx, -4(%rbp)
	movl	-4(%rbp), %ecx
	addl	$5, %ecx
	movl	%ecx, -4(%rbp)
	movl	-4(%rbp), %ecx
	addl	$5, %ecx
	movl	%ecx, -4(%rbp)
	movl	-4(%rbp), %ecx
	addl	$5, %ecx
	movl	%ecx, -4(%rbp)
	movl	-4(%rbp), %ecx
	addl	$5, %ecx
	movl	%ecx, -4(%rbp)
	movl	-4(%rbp), %ecx
	addl	$5, %ecx
	movl	%ecx, -4(%rbp)
	movl	-4(%rbp), %ecx
	addl	$5, %ecx
	movl	%ecx, -4(%rbp)
	movl	-4(%rbp), %ecx
	addl	$5, %ecx
	movl	%ecx, -4(%rbp)
	movl	-4(%rbp), %ecx
	addl	$5, %ecx
	movl	%ecx, -4(%rbp)
	movl	-4(%rbp), %ecx
	addl	$5, %ecx
	movl	%ecx, -4(%rbp)
	movl	-4(%rbp), %ecx
	addl	$5, %ecx
	movl	%ecx, -4(%rbp)
	movl	-4(%rbp), %ecx
	addl	$5, %ecx
	movl	%ecx, -4(%rbp)
	movl	-4(%rbp), %ecx
	addl	$5, %ecx
	movl	%ecx, -4(%rbp)
	movl	-4(%rbp), %ecx
	addl	$5, %ecx
	movl	%ecx, -4(%rbp)
	movl	-4(%rbp), %ecx
	addl	$5, %ecx
	movl	%ecx, -4(%rbp)
	movl	-4(%rbp), %ecx
	addl	$5, %ecx
	movl	%ecx, -4(%rbp)
	movl	-4(%rbp), %ecx
	addl	$5, %ecx
	movl	%ecx, -4(%rbp)
	movl	-4(%rbp), %ecx
	addl	$5, %ecx
	movl	%ecx, -4(%rbp)
	movl	-4(%rbp), %ecx
	addl	$5, %ecx
	movl	%ecx, -4(%rbp)
	movl	-4(%rbp), %ecx
	addl	$5, %ecx
	movl	%ecx, -4(%rbp)
	movl	-4(%rbp), %ecx
	addl	$5, %ecx
	movl	%ecx, -4(%rbp)
	movl	-4(%rbp), %ecx
	addl	$5, %ecx
	movl	%ecx, -4(%rbp)
	movl	-4(%rbp), %ecx
	addl	$5, %ecx
	movl	%ecx, -4(%rbp)
	movl	-4(%rbp), %ecx
	addl	$5, %ecx
	movl	%ecx, -4(%rbp)
	movl	-4(%rbp), %ecx
	addl	$5, %ecx
	movl	%ecx, -4(%rbp)
	movl	-4(%rbp), %ecx
	addl	$5, %ecx
	movl	%ecx, -4(%rbp)
	movl	-4(%rbp), %ecx
	addl	$5, %ecx
	movl	%ecx, -4(%rbp)
	movl	-4(%rbp), %ecx
	addl	$5, %ecx
	movl	%ecx, -4(%rbp)
	movl	-4(%rbp), %ecx
	addl	$5, %ecx
	movl	%ecx, -4(%rbp)
	movl	-4(%rbp), %ecx
	addl	$5, %ecx
	movl	%ecx, -4(%rbp)
	movl	-4(%rbp), %ecx
	addl	$5, %ecx
	movl	%ecx, -4(%rbp)
	movl	-4(%rbp), %ecx
	addl	$5, %ecx
	movl	%ecx, -4(%rbp)
	movl	-4(%rbp), %ecx
	addl	$5, %ecx
	movl	%ecx, -4(%rbp)
	movl	-4(%rbp), %ecx
	addl	$5, %ecx
	movl	%ecx, -4(%rbp)
	movl	-4(%rbp), %ecx
	addl	$5, %ecx
	movl	%ecx, -4(%rbp)
	movl	-4(%rbp), %ecx
	addl	$5, %ecx
	movl	%ecx, -4(%rbp)
	movl	-4(%rbp), %ecx
	addl	$5, %ecx
	movl	%ecx, -4(%rbp)
	movl	-4(%rbp), %ecx
	addl	$5, %ecx
	movl	%ecx, -4(%rbp)
	movl	-4(%rbp), %ecx
	addl	$5, %ecx
	movl	%ecx, -4(%rbp)
	movl	-4(%rbp), %ecx
	addl	$5, %ecx
	movl	%ecx, -4(%rbp)
	movl	-4(%rbp), %ecx
	addl	$5, %ecx
	movl	%ecx, -4(%rbp)
	movl	-4(%rbp), %ecx
	addl	$5, %ecx
	movl	%ecx, -4(%rbp)
	movl	-4(%rbp), %ecx
	addl	$5, %ecx
	movl	%ecx, -4(%rbp)
	movl	-4(%rbp), %ecx
	addl	$5, %ecx
	movl	%ecx, -4(%rbp)
	movl	-4(%rbp), %ecx
	addl	$5, %ecx
	movl	%ecx, -4(%rbp)
	movl	-4(%rbp), %ecx
	addl	$5, %ecx
	movl	%ecx, -4(%rbp)
	movl	-4(%rbp), %ecx
	addl	$5, %ecx
	movl	%ecx, -4(%rbp)
	movl	-4(%rbp), %ecx
	addl	$5, %ecx
	movl	%ecx, -4(%rbp)
	movl	-4(%rbp), %ecx
	addl	$5, %ecx
	movl	%ecx, -4(%rbp)
	movl	-4(%rbp), %ecx
	addl	$5, %ecx
	movl	%ecx, -4(%rbp)
	movl	-4(%rbp), %ecx
	addl	$5, %ecx
	movl	%ecx, -4(%rbp)
	movl	-4(%rbp), %ecx
	addl	$5, %ecx
	movl	%ecx, -4(%rbp)
	movl	-4(%rbp), %ecx
	addl	$5, %ecx
	movl	%ecx, -4(%rbp)
	movl	-4(%rbp), %ecx
	addl	$5, %ecx
	movl	%ecx, -4(%rbp)
	movl	-4(%rbp), %ecx
	addl	$5, %ecx
	movl	%ecx, -4(%rbp)
	movl	-4(%rbp), %ecx
	addl	$5, %ecx
	movl	%ecx, -4(%rbp)
	movl	-4(%rbp), %ecx
	addl	$5, %ecx
	movl	%ecx, -4(%rbp)
	movl	-4(%rbp), %ecx
	addl	$5, %ecx
	movl	%ecx, -4(%rbp)
	movl	-4(%rbp), %ecx
	addl	$5, %ecx
	movl	%ecx, -4(%rbp)
	movl	-4(%rbp), %ecx
	addl	$5, %ecx
	movl	%ecx, -4(%rbp)
	movl	-4(%rbp), %ecx
	addl	$5, %ecx
	movl	%ecx, -4(%rbp)
	movl	-4(%rbp), %ecx
	addl	$5, %ecx
	movl	%ecx, -4(%rbp)
	movl	-4(%rbp), %ecx
	addl	$5, %ecx
	movl	%ecx, -4(%rbp)
	movl	-4(%rbp), %ecx
	addl	$5, %ecx
	movl	%ecx, -4(%rbp)
	movl	-4(%rbp), %ecx
	addl	$5, %ecx
	movl	%ecx, -4(%rbp)
	movl	-4(%rbp), %ecx
	addl	$5, %ecx
	movl	%ecx, -4(%rbp)
	movl	-4(%rbp), %ecx
	addl	$5, %ecx
	movl	%ecx, -4(%rbp)
	movl	-4(%rbp), %ecx
	addl	$5, %ecx
	movl	%ecx, -4(%rbp)
	movl	-4(%rbp), %ecx
	addl	$5, %ecx
	movl	%ecx, -4(%rbp)
	movl	-4(%rbp), %ecx
	addl	$5, %ecx
	movl	%ecx, -4(%rbp)
	movl	-4(%rbp), %ecx
	addl	$5, %ecx
	movl	%ecx, -4(%rbp)
	movl	-4(%rbp), %ecx
	addl	$5, %ecx
	movl	%ecx, -4(%rbp)
	movl	-4(%rbp), %ecx
	addl	$5, %ecx
	movl	%ecx, -4(%rbp)
	movl	-4(%rbp), %ecx
	addl	$5, %ecx
	movl	%ecx, -4(%rbp)
	movl	-4(%rbp), %ecx
	addl	$5, %ecx
	movl	%ecx, -4(%rbp)
	movl	-4(%rbp), %ecx
	addl	$5, %ecx
	movl	%ecx, -4(%rbp)
	movl	-4(%rbp), %ecx
	addl	$5, %ecx
	movl	%ecx, -4(%rbp)
	movl	-4(%rbp), %ecx
	addl	$5, %ecx
	movl	%ecx, -4(%rbp)
	movl	-4(%rbp), %ecx
	addl	$5, %ecx
	movl	%ecx, -4(%rbp)
	movl	-4(%rbp), %ecx
	addl	$5, %ecx
	movl	%ecx, -4(%rbp)
	movl	-4(%rbp), %ecx
	addl	$5, %ecx
	movl	%ecx, -4(%rbp)
	movl	-4(%rbp), %ecx
	addl	$5, %ecx
	movl	%ecx, -4(%rbp)
	movl	-4(%rbp), %ecx
	addl	$5, %ecx
	movl	%ecx, -4(%rbp)
	movl	-4(%rbp), %ecx
	addl	$5, %ecx
	movl	%ecx, -4(%rbp)
	movl	-4(%rbp), %ecx
	addl	$5, %ecx
	movl	%ecx, -4(%rbp)
	movl	-4(%rbp), %ecx
	addl	$5, %ecx
	movl	%ecx, -4(%rbp)
	movl	-4(%rbp), %ecx
	addl	$5, %ecx
	movl	%ecx, -4(%rbp)
	movl	-4(%rbp), %ecx
	addl	$5, %ecx
	movl	%ecx, -4(%rbp)
	movl	-4(%rbp), %ecx
	addl	$5, %ecx
	movl	%ecx, -4(%rbp)
	movl	-4(%rbp), %ecx
	addl	$5, %ecx
	movl	%ecx, -4(%rbp)
	movl	-4(%rbp), %ecx
	addl	$5, %ecx
	movl	%ecx, -4(%rbp)
	movl	-4(%rbp), %ecx
	addl	$5, %ecx
	movl	%ecx, -4(%rbp)
	movl	-4(%rbp), %ecx
	addl	$5, %ecx
	movl	%ecx, -4(%rbp)
	movl	-4(%rbp), %ecx
	addl	$5, %ecx
	movl	%ecx, -4(%rbp)
	movl	-4(%rbp), %ecx
	addl	$5, %ecx
	movl	%ecx, -4(%rbp)
	movl	-4(%rbp), %ecx
	addl	$5, %ecx
	movl	%ecx, -4(%rbp)
	movl	-4(%rbp), %ecx
	addl	$5, %ecx
	movl	%ecx, -4(%rbp)
	movl	-4(%rbp), %ecx
	addl	$5, %ecx
	movl	%ecx, -4(%rbp)
	movl	-4(%rbp), %ecx
	addl	$5, %ecx
	movl	%ecx, -4(%rbp)
	movl	-4(%rbp), %ecx
	addl	$5, %ecx
	movl	%ecx, -4(%rbp)
	movl	-4(%rbp), %ecx
	addl	$5, %ecx
	movl	%ecx, -4(%rbp)
	movl	-4(%rbp), %ecx
	addl	$5, %ecx
	movl	%ecx, -4(%rbp)
	movl	-4(%rbp), %ecx
	addl	$5, %ecx
	movl	%ecx, -4(%rbp)
	movl	-4(%rbp), %ecx
	addl	$5, %ecx
	movl	%ecx, -4(%rbp)
	movl	-4(%rbp), %ecx
	addl	$5, %ecx
	movl	%ecx, -4(%rbp)
	movl	-4(%rbp), %ecx
	addl	$5, %ecx
	movl	%ecx, -4(%rbp)
	movl	-4(%rbp), %ecx
	addl	$5, %ecx
	movl	%ecx, -4(%rbp)
	movl	-4(%rbp), %ecx
	addl	$5, %ecx
	movl	%ecx, -4(%rbp)
	movl	-4(%rbp), %ecx
	addl	$5, %ecx
	movl	%ecx, -4(%rbp)
	movl	-4(%rbp), %ecx
	addl	$5, %ecx
	movl	%ecx, -4(%rbp)
	movl	-4(%rbp), %ecx
	addl	$5, %ecx
	movl	%ecx, -4(%rbp)
	movl	-4(%rbp), %ecx
	addl	$5, %ecx
	movl	%ecx, -4(%rbp)
	movl	-4(%rbp), %ecx
	addl	$5, %ecx
	movl	%ecx, -4(%rbp)
	movl	-4(%rbp), %ecx
	addl	$5, %ecx
	movl	%ecx, -4(%rbp)
	movl	-4(%rbp), %ecx
	addl	$5, %ecx
	movl	%ecx, -4(%rbp)
	movl	-4(%rbp), %ecx
	addl	$5, %ecx
	movl	%ecx, -4(%rbp)
	movl	-4(%rbp), %ecx
	addl	$5, %ecx
	movl	%ecx, -4(%rbp)
	movl	-4(%rbp), %ecx
	addl	$5, %ecx
	movl	%ecx, -4(%rbp)
	movl	-4(%rbp), %ecx
	addl	$5, %ecx
	movl	%ecx, -4(%rbp)
	movl	-4(%rbp), %ecx
	addl	$5, %ecx
	movl	%ecx, -4(%rbp)
	movl	-4(%rbp), %ecx
	addl	$5, %ecx
	movl	%ecx, -4(%rbp)
	movl	-4(%rbp), %ecx
	addl	$5, %ecx
	movl	%ecx, -4(%rbp)
	movl	-4(%rbp), %ecx
	addl	$5, %ecx
	movl	%ecx, -4(%rbp)
	movl	-4(%rbp), %ecx
	addl	$5, %ecx
	movl	%ecx, -4(%rbp)
	movl	-4(%rbp), %ecx
	addl	$5, %ecx
	movl	%ecx, -4(%rbp)
	movl	-4(%rbp), %ecx
	addl	$5, %ecx
	movl	%ecx, -4(%rbp)
	movl	-4(%rbp), %ecx
	addl	$5, %ecx
	movl	%ecx, -4(%rbp)
	movl	-4(%rbp), %ecx
	addl	$5, %ecx
	movl	%ecx, -4(%rbp)
	movl	-4(%rbp), %ecx
	addl	$5, %ecx
	movl	%ecx, -4(%rbp)
	movl	-4(%rbp), %ecx
	addl	$5, %ecx
	movl	%ecx, -4(%rbp)
	movl	-4(%rbp), %ecx
	addl	$5, %ecx
	movl	%ecx, -4(%rbp)
	movl	-4(%rbp), %ecx
	addl	$5, %ecx
	movl	%ecx, -4(%rbp)
	movl	-4(%rbp), %ecx
	addl	$5, %ecx
	movl	%ecx, -4(%rbp)
	movl	-4(%rbp), %ecx
	addl	$5, %ecx
	movl	%ecx, -4(%rbp)
	movl	-4(%rbp), %ecx
	addl	$5, %ecx
	movl	%ecx, -4(%rbp)
	movl	-4(%rbp), %ecx
	addl	$5, %ecx
	movl	%ecx, -4(%rbp)
	movl	-4(%rbp), %ecx
	addl	$5, %ecx
	movl	%ecx, -4(%rbp)
	movl	-4(%rbp), %ecx
	addl	$5, %ecx
	movl	%ecx, -4(%rbp)
	movl	-4(%rbp), %ecx
	addl	$5, %ecx
	movl	%ecx, -4(%rbp)
	movl	-4(%rbp), %ecx
	addl	$5, %ecx
	movl	%ecx, -4(%rbp)
	movl	-4(%rbp), %ecx
	addl	$5, %ecx
	movl	%ecx, -4(%rbp)
	movl	-4(%rbp), %ecx
	addl	$5, %ecx
	movl	%ecx, -4(%rbp)
	movl	-4(%rbp), %ecx
	addl	$5, %ecx
	movl	%ecx, -4(%rbp)
	movl	-4(%rbp), %ecx
	addl	$5, %ecx
	movl	%ecx, -4(%rbp)
	movl	-4(%rbp), %ecx
	addl	$5, %ecx
	movl	%ecx, -4(%rbp)
	movl	-4(%rbp), %ecx
	addl	$5, %ecx
	movl	%ecx, -4(%rbp)
	movl	-4(%rbp), %ecx
	addl	$5, %ecx
	movl	%ecx, -4(%rbp)
	movl	-4(%rbp), %ecx
	addl	$5, %ecx
	movl	%ecx, -4(%rbp)
	movl	-4(%rbp), %ecx
	addl	$5, %ecx
	movl	%ecx, -4(%rbp)
	movl	-4(%rbp), %ecx
	addl	$5, %ecx
	movl	%ecx, -4(%rbp)
	movl	-4(%rbp), %ecx
	addl	$5, %ecx
	movl	%ecx, -4(%rbp)
	movl	-4(%rbp), %ecx
	addl	$5, %ecx
	movl	%ecx, -4(%rbp)
	movl	-4(%rbp), %ecx
	addl	$5, %ecx
	movl	%ecx, -4(%rbp)
	movl	-4(%rbp), %ecx
	addl	$5, %ecx
	movl	%ecx, -4(%rbp)
	movl	-4(%rbp), %ecx
	addl	$5, %ecx
	movl	%ecx, -4(%rbp)
	movl	-4(%rbp), %ecx
	addl	$5, %ecx
	movl	%ecx, -4(%rbp)
	movl	-4(%rbp), %ecx
	addl	$5, %ecx
	movl	%ecx, -4(%rbp)
	movl	-4(%rbp), %ecx
	addl	$5, %ecx
	movl	%ecx, -4(%rbp)
	movl	-4(%rbp), %ecx
	addl	$5, %ecx
	movl	%ecx, -4(%rbp)
	movl	-4(%rbp), %ecx
	addl	$5, %ecx
	movl	%ecx, -4(%rbp)
	movl	-4(%rbp), %ecx
	addl	$5, %ecx
	movl	%ecx, -4(%rbp)
	movl	-4(%rbp), %ecx
	addl	$5, %ecx
	movl	%ecx, -4(%rbp)
	movl	-4(%rbp), %ecx
	addl	$5, %ecx
	movl	%ecx, -4(%rbp)
	movl	-4(%rbp), %ecx
	addl	$5, %ecx
	movl	%ecx, -4(%rbp)
	movl	-4(%rbp), %ecx
	addl	$5, %ecx
	movl	%ecx, -4(%rbp)
	movl	-4(%rbp), %ecx
	addl	$5, %ecx
	movl	%ecx, -4(%rbp)
	movl	-4(%rbp), %ecx
	addl	$5, %ecx
	movl	%ecx, -4(%rbp)
	movl	-4(%rbp), %ecx
	addl	$5, %ecx
	movl	%ecx, -4(%rbp)
	movl	-4(%rbp), %ecx
	addl	$5, %ecx
	movl	%ecx, -4(%rbp)
	movl	-4(%rbp), %ecx
	addl	$5, %ecx
	movl	%ecx, -4(%rbp)
	movl	-4(%rbp), %ecx
	addl	$5, %ecx
	movl	%ecx, -4(%rbp)
	movl	-4(%rbp), %ecx
	addl	$5, %ecx
	movl	%ecx, -4(%rbp)
	movl	-4(%rbp), %ecx
	addl	$5, %ecx
	movl	%ecx, -4(%rbp)
	movl	-4(%rbp), %ecx
	addl	$5, %ecx
	movl	%ecx, -4(%rbp)
	movl	-4(%rbp), %ecx
	addl	$5, %ecx
	movl	%ecx, -4(%rbp)
	movl	-4(%rbp), %ecx
	addl	$5, %ecx
	movl	%ecx, -4(%rbp)
	movl	-4(%rbp), %ecx
	addl	$5, %ecx
	movl	%ecx, -4(%rbp)
	movl	-4(%rbp), %ecx
	addl	$5, %ecx
	movl	%ecx, -4(%rbp)
	movl	-4(%rbp), %ecx
	addl	$5, %ecx
	movl	%ecx, -4(%rbp)
	movl	-4(%rbp), %ecx
	addl	$5, %ecx
	movl	%ecx, -4(%rbp)
	movl	-4(%rbp), %ecx
	addl	$5, %ecx
	movl	%ecx, -4(%rbp)
	movl	-4(%rbp), %ecx
	addl	$5, %ecx
	movl	%ecx, -4(%rbp)
	movl	-4(%rbp), %ecx
	addl	$5, %ecx
	movl	%ecx, -4(%rbp)
	movl	-4(%rbp), %ecx
	addl	$5, %ecx
	movl	%ecx, -4(%rbp)
	movl	-4(%rbp), %ecx
	addl	$5, %ecx
	movl	%ecx, -4(%rbp)
	movl	-4(%rbp), %ecx
	addl	$5, %ecx
	movl	%ecx, -4(%rbp)
	movl	-4(%rbp), %ecx
	addl	$5, %ecx
	movl	%ecx, -4(%rbp)
	movl	-4(%rbp), %ecx
	addl	$5, %ecx
	movl	%ecx, -4(%rbp)
	movl	-4(%rbp), %ecx
	addl	$5, %ecx
	movl	%ecx, -4(%rbp)
	movl	-4(%rbp), %ecx
	addl	$5, %ecx
	movl	%ecx, -4(%rbp)
	movl	-4(%rbp), %ecx
	addl	$5, %ecx
	movl	%ecx, -4(%rbp)
	movl	-4(%rbp), %ecx
	addl	$5, %ecx
	movl	%ecx, -4(%rbp)
	movl	-4(%rbp), %ecx
	addl	$5, %ecx
	movl	%ecx, -4(%rbp)
	movl	-4(%rbp), %ecx
	addl	$5, %ecx
	movl	%ecx, -4(%rbp)
	movl	-4(%rbp), %ecx
	addl	$5, %ecx
	movl	%ecx, -4(%rbp)
	movl	-4(%rbp), %ecx
	addl	$5, %ecx
	movl	%ecx, -4(%rbp)
	movl	-4(%rbp), %ecx
	addl	$5, %ecx
	movl	%ecx, -4(%rbp)
	movl	-4(%rbp), %ecx
	addl	$5, %ecx
	movl	%ecx, -4(%rbp)
	movl	-4(%rbp), %ecx
	addl	$5, %ecx
	movl	%ecx, -4(%rbp)
	movl	-4(%rbp), %ecx
	addl	$5, %ecx
	movl	%ecx, -4(%rbp)
	movl	-4(%rbp), %ecx
	addl	$5, %ecx
	movl	%ecx, -4(%rbp)
	movl	-4(%rbp), %ecx
	addl	$5, %ecx
	movl	%ecx, -4(%rbp)
	movl	-4(%rbp), %ecx
	addl	$5, %ecx
	movl	%ecx, -4(%rbp)
	movl	-4(%rbp), %ecx
	addl	$5, %ecx
	movl	%ecx, -4(%rbp)
	movl	-4(%rbp), %ecx
	addl	$5, %ecx
	movl	%ecx, -4(%rbp)
	movl	-4(%rbp), %ecx
	addl	$5, %ecx
	movl	%ecx, -4(%rbp)
	movl	-4(%rbp), %ecx
	addl	$5, %ecx
	movl	%ecx, -4(%rbp)
	movl	-4(%rbp), %ecx
	addl	$5, %ecx
	movl	%ecx, -4(%rbp)
	movl	-4(%rbp), %ecx
	addl	$5, %ecx
	movl	%ecx, -4(%rbp)
	movl	-4(%rbp), %ecx
	addl	$5, %ecx
	movl	%ecx, -4(%rbp)
	movl	-4(%rbp), %ecx
	addl	$5, %ecx
	movl	%ecx, -4(%rbp)
	movl	-4(%rbp), %ecx
	addl	$5, %ecx
	movl	%ecx, -4(%rbp)
	movl	-4(%rbp), %ecx
	addl	$5, %ecx
	movl	%ecx, -4(%rbp)
	movl	-4(%rbp), %ecx
	addl	$5, %ecx
	movl	%ecx, -4(%rbp)
	movl	-4(%rbp), %ecx
	addl	$5, %ecx
	movl	%ecx, -4(%rbp)
	movl	-4(%rbp), %ecx
	addl	$5, %ecx
	movl	%ecx, -4(%rbp)
	movl	-4(%rbp), %ecx
	addl	$5, %ecx
	movl	%ecx, -4(%rbp)
	movl	-4(%rbp), %ecx
	addl	$5, %ecx
	movl	%ecx, -4(%rbp)
	movl	-4(%rbp), %ecx
	addl	$5, %ecx
	movl	%ecx, -4(%rbp)
	movl	-4(%rbp), %ecx
	addl	$5, %ecx
	movl	%ecx, -4(%rbp)
	movl	-4(%rbp), %ecx
	addl	$5, %ecx
	movl	%ecx, -4(%rbp)
	movl	-4(%rbp), %ecx
	addl	$5, %ecx
	movl	%ecx, -4(%rbp)
	movl	-4(%rbp), %ecx
	addl	$5, %ecx
	movl	%ecx, -4(%rbp)
	movl	-4(%rbp), %ecx
	addl	$5, %ecx
	movl	%ecx, -4(%rbp)
	movl	-4(%rbp), %ecx
	addl	$5, %ecx
	movl	%ecx, -4(%rbp)
	movl	-4(%rbp), %ecx
	addl	$5, %ecx
	movl	%ecx, -4(%rbp)
	movl	-4(%rbp), %ecx
	addl	$5, %ecx
	movl	%ecx, -4(%rbp)
	movl	-4(%rbp), %ecx
	addl	$5, %ecx
	movl	%ecx, -4(%rbp)
	movl	-4(%rbp), %ecx
	addl	$5, %ecx
	movl	%ecx, -4(%rbp)
	movl	-4(%rbp), %ecx
	addl	$5, %ecx
	movl	%ecx, -4(%rbp)
	movl	-4(%rbp), %ecx
	addl	$5, %ecx
	movl	%ecx, -4(%rbp)
	movl	-4(%rbp), %ecx
	addl	$5, %ecx
	movl	%ecx, -4(%rbp)
	movl	-4(%rbp), %ecx
	addl	$5, %ecx
	movl	%ecx, -4(%rbp)
	movl	-4(%rbp), %ecx
	addl	$5, %ecx
	movl	%ecx, -4(%rbp)
	movl	-4(%rbp), %ecx
	addl	$5, %ecx
	movl	%ecx, -4(%rbp)
	movl	-4(%rbp), %ecx
	addl	$5, %ecx
	movl	%ecx, -4(%rbp)
	movl	-4(%rbp), %ecx
	addl	$5, %ecx
	movl	%ecx, -4(%rbp)
	movl	-4(%rbp), %ecx
	addl	$5, %ecx
	movl	%ecx, -4(%rbp)
	movl	-4(%rbp), %ecx
	addl	$5, %ecx
	movl	%ecx, -4(%rbp)
	movl	-4(%rbp), %ecx
	addl	$5, %ecx
	movl	%ecx, -4(%rbp)
	movl	-4(%rbp), %ecx
	addl	$5, %ecx
	movl	%ecx, -4(%rbp)
	movl	-4(%rbp), %ecx
	addl	$5, %ecx
	movl	%ecx, -4(%rbp)
	movl	-4(%rbp), %ecx
	addl	$5, %ecx
	movl	%ecx, -4(%rbp)
	movl	-4(%rbp), %ecx
	addl	$5, %ecx
	movl	%ecx, -4(%rbp)
	movl	-4(%rbp), %ecx
	addl	$5, %ecx
	movl	%ecx, -4(%rbp)
	movl	-4(%rbp), %ecx
	addl	$5, %ecx
	movl	%ecx, -4(%rbp)
	movl	-4(%rbp), %ecx
	addl	$5, %ecx
	movl	%ecx, -4(%rbp)
	movl	-4(%rbp), %ecx
	addl	$5, %ecx
	movl	%ecx, -4(%rbp)
	movl	-4(%rbp), %ecx
	addl	$5, %ecx
	movl	%ecx, -4(%rbp)
	movl	-4(%rbp), %ecx
	addl	$5, %ecx
	movl	%ecx, -4(%rbp)
	movl	-4(%rbp), %ecx
	addl	$5, %ecx
	movl	%ecx, -4(%rbp)
	movl	-4(%rbp), %ecx
	addl	$5, %ecx
	movl	%ecx, -4(%rbp)
	movl	-4(%rbp), %ecx
	addl	$5, %ecx
	movl	%ecx, -4(%rbp)
	movl	-4(%rbp), %ecx
	addl	$5, %ecx
	movl	%ecx, -4(%rbp)
	movl	-4(%rbp), %ecx
	addl	$5, %ecx
	movl	%ecx, -4(%rbp)
	movl	-4(%rbp), %ecx
	addl	$5, %ecx
	movl	%ecx, -4(%rbp)
	movl	-4(%rbp), %ecx
	addl	$5, %ecx
	movl	%ecx, -4(%rbp)
	movl	-4(%rbp), %ecx
	addl	$5, %ecx
	movl	%ecx, -4(%rbp)
	movl	-4(%rbp), %ecx
	addl	$5, %ecx
	movl	%ecx, -4(%rbp)
	movl	-4(%rbp), %ecx
	addl	$5, %ecx
	movl	%ecx, -4(%rbp)
	movl	-4(%rbp), %ecx
	addl	$5, %ecx
	movl	%ecx, -4(%rbp)
	movl	-4(%rbp), %ecx
	addl	$5, %ecx
	movl	%ecx, -4(%rbp)
	movl	-4(%rbp), %ecx
	addl	$5, %ecx
	movl	%ecx, -4(%rbp)
	movl	-4(%rbp), %ecx
	addl	$5, %ecx
	movl	%ecx, -4(%rbp)
	movl	-4(%rbp), %ecx
	addl	$5, %ecx
	movl	%ecx, -4(%rbp)
	movl	-4(%rbp), %ecx
	addl	$5, %ecx
	movl	%ecx, -4(%rbp)
	movl	-4(%rbp), %ecx
	addl	$5, %ecx
	movl	%ecx, -4(%rbp)
	movl	-4(%rbp), %ecx
	addl	$5, %ecx
	movl	%ecx, -4(%rbp)
	movl	-4(%rbp), %ecx
	addl	$5, %ecx
	movl	%ecx, -4(%rbp)
	movl	-4(%rbp), %ecx
	addl	$5, %ecx
	movl	%ecx, -4(%rbp)
	movl	-4(%rbp), %ecx
	addl	$5, %ecx
	movl	%ecx, -4(%rbp)
	movl	-4(%rbp), %ecx
	addl	$5, %ecx
	movl	%ecx, -4(%rbp)
	movl	-4(%rbp), %ecx
	addl	$5, %ecx
	movl	%ecx, -4(%rbp)
	movl	-4(%rbp), %ecx
	addl	$5, %ecx
	movl	%ecx, -4(%rbp)
	movl	-4(%rbp), %ecx
	addl	$5, %ecx
	movl	%ecx, -4(%rbp)
	movl	-4(%rbp), %ecx
	addl	$5, %ecx
	movl	%ecx, -4(%rbp)
	movl	-4(%rbp), %ecx
	addl	$5, %ecx
	movl	%ecx, -4(%rbp)
	movl	-4(%rbp), %ecx
	addl	$5, %ecx
	movl	%ecx, -4(%rbp)
	movl	-4(%rbp), %ecx
	addl	$5, %ecx
	movl	%ecx, -4(%rbp)
	movl	-4(%rbp), %ecx
	addl	$5, %ecx
	movl	%ecx, -4(%rbp)
	movl	-4(%rbp), %ecx
	addl	$5, %ecx
	movl	%ecx, -4(%rbp)
	movl	-4(%rbp), %ecx
	addl	$5, %ecx
	movl	%ecx, -4(%rbp)
	movl	-4(%rbp), %ecx
	addl	$5, %ecx
	movl	%ecx, -4(%rbp)
	movl	-4(%rbp), %ecx
	addl	$5, %ecx
	movl	%ecx, -4(%rbp)
	movl	-4(%rbp), %ecx
	addl	$5, %ecx
	movl	%ecx, -4(%rbp)
	movl	-4(%rbp), %ecx
	addl	$5, %ecx
	movl	%ecx, -4(%rbp)
	movl	-4(%rbp), %ecx
	addl	$5, %ecx
	movl	%ecx, -4(%rbp)
	movl	-4(%rbp), %ecx
	addl	$5, %ecx
	movl	%ecx, -4(%rbp)
	movl	-4(%rbp), %ecx
	addl	$5, %ecx
	movl	%ecx, -4(%rbp)
	movl	-4(%rbp), %ecx
	addl	$5, %ecx
	movl	%ecx, -4(%rbp)
	movl	-4(%rbp), %ecx
	addl	$5, %ecx
	movl	%ecx, -4(%rbp)
	movl	-4(%rbp), %ecx
	addl	$5, %ecx
	movl	%ecx, -4(%rbp)
	movl	-4(%rbp), %ecx
	addl	$5, %ecx
	movl	%ecx, -4(%rbp)
	movl	-4(%rbp), %ecx
	addl	$5, %ecx
	movl	%ecx, -4(%rbp)
	movl	-4(%rbp), %ecx
	addl	$5, %ecx
	movl	%ecx, -4(%rbp)
	movl	-4(%rbp), %ecx
	addl	$5, %ecx
	movl	%ecx, -4(%rbp)
	movl	-4(%rbp), %ecx
	addl	$5, %ecx
	movl	%ecx, -4(%rbp)
	movl	-4(%rbp), %ecx
	addl	$5, %ecx
	movl	%ecx, -4(%rbp)
	movl	-4(%rbp), %ecx
	addl	$5, %ecx
	movl	%ecx, -4(%rbp)
	movl	-4(%rbp), %ecx
	addl	$5, %ecx
	movl	%ecx, -4(%rbp)
	movl	-4(%rbp), %ecx
	addl	$5, %ecx
	movl	%ecx, -4(%rbp)
	movl	-4(%rbp), %ecx
	addl	$5, %ecx
	movl	%ecx, -4(%rbp)
	movl	-4(%rbp), %ecx
	addl	$5, %ecx
	movl	%ecx, -4(%rbp)
	movl	-4(%rbp), %ecx
	addl	$5, %ecx
	movl	%ecx, -4(%rbp)
	movl	-4(%rbp), %ecx
	addl	$5, %ecx
	movl	%ecx, -4(%rbp)
	movl	-4(%rbp), %ecx
	addl	$5, %ecx
	movl	%ecx, -4(%rbp)
	movl	-4(%rbp), %ecx
	addl	$5, %ecx
	movl	%ecx, -4(%rbp)
	movl	-4(%rbp), %ecx
	addl	$5, %ecx
	movl	%ecx, -4(%rbp)
	movl	-4(%rbp), %ecx
	addl	$5, %ecx
	movl	%ecx, -4(%rbp)
	movl	-4(%rbp), %ecx
	addl	$5, %ecx
	movl	%ecx, -4(%rbp)
	movl	-4(%rbp), %ecx
	addl	$5, %ecx
	movl	%ecx, -4(%rbp)
	movl	-4(%rbp), %ecx
	addl	$5, %ecx
	movl	%ecx, -4(%rbp)
	movl	-4(%rbp), %ecx
	addl	$5, %ecx
	movl	%ecx, -4(%rbp)
	movl	-4(%rbp), %ecx
	addl	$5, %ecx
	movl	%ecx, -4(%rbp)
	movl	-4(%rbp), %ecx
	addl	$5, %ecx
	movl	%ecx, -4(%rbp)
	movl	-4(%rbp), %ecx
	addl	$5, %ecx
	movl	%ecx, -4(%rbp)
	movl	-4(%rbp), %ecx
	addl	$5, %ecx
	movl	%ecx, -4(%rbp)
	movl	-4(%rbp), %ecx
	addl	$5, %ecx
	movl	%ecx, -4(%rbp)
	movl	-4(%rbp), %ecx
	addl	$5, %ecx
	movl	%ecx, -4(%rbp)
	movl	-4(%rbp), %ecx
	addl	$5, %ecx
	movl	%ecx, -4(%rbp)
	movl	-4(%rbp), %ecx
	addl	$5, %ecx
	movl	%ecx, -4(%rbp)
	movl	-4(%rbp), %ecx
	addl	$5, %ecx
	movl	%ecx, -4(%rbp)
	movl	-4(%rbp), %ecx
	addl	$5, %ecx
	movl	%ecx, -4(%rbp)
	movl	-4(%rbp), %ecx
	addl	$5, %ecx
	movl	%ecx, -4(%rbp)
	movl	-4(%rbp), %ecx
	addl	$5, %ecx
	movl	%ecx, -4(%rbp)
	movl	-4(%rbp), %ecx
	addl	$5, %ecx
	movl	%ecx, -4(%rbp)
	movl	-4(%rbp), %ecx
	addl	$5, %ecx
	movl	%ecx, -4(%rbp)
	movl	-4(%rbp), %ecx
	addl	$5, %ecx
	movl	%ecx, -4(%rbp)
	movl	-4(%rbp), %ecx
	addl	$5, %ecx
	movl	%ecx, -4(%rbp)
	movl	-4(%rbp), %ecx
	addl	$5, %ecx
	movl	%ecx, -4(%rbp)
	movl	-4(%rbp), %ecx
	addl	$5, %ecx
	movl	%ecx, -4(%rbp)
	movl	-4(%rbp), %ecx
	addl	$5, %ecx
	movl	%ecx, -4(%rbp)
	movl	-4(%rbp), %ecx
	addl	$5, %ecx
	movl	%ecx, -4(%rbp)
	movl	-4(%rbp), %ecx
	addl	$5, %ecx
	movl	%ecx, -4(%rbp)
	movl	-4(%rbp), %ecx
	addl	$5, %ecx
	movl	%ecx, -4(%rbp)
	movl	-4(%rbp), %ecx
	addl	$5, %ecx
	movl	%ecx, -4(%rbp)
	movl	-4(%rbp), %ecx
	addl	$5, %ecx
	movl	%ecx, -4(%rbp)
	movl	-4(%rbp), %ecx
	addl	$5, %ecx
	movl	%ecx, -4(%rbp)
	movl	-4(%rbp), %ecx
	addl	$5, %ecx
	movl	%ecx, -4(%rbp)
	movl	-4(%rbp), %ecx
	addl	$5, %ecx
	movl	%ecx, -4(%rbp)
	movl	-4(%rbp), %ecx
	addl	$5, %ecx
	movl	%ecx, -4(%rbp)
	movl	-4(%rbp), %ecx
	addl	$5, %ecx
	movl	%ecx, -4(%rbp)
	movl	-4(%rbp), %ecx
	addl	$5, %ecx
	movl	%ecx, -4(%rbp)
	movl	-4(%rbp), %ecx
	addl	$5, %ecx
	movl	%ecx, -4(%rbp)
	movl	-4(%rbp), %ecx
	addl	$5, %ecx
	movl	%ecx, -4(%rbp)
	movl	-4(%rbp), %ecx
	addl	$5, %ecx
	movl	%ecx, -4(%rbp)
	movl	-4(%rbp), %ecx
	addl	$5, %ecx
	movl	%ecx, -4(%rbp)
	movl	-4(%rbp), %ecx
	addl	$5, %ecx
	movl	%ecx, -4(%rbp)
	movl	-4(%rbp), %ecx
	addl	$5, %ecx
	movl	%ecx, -4(%rbp)
	movl	-4(%rbp), %ecx
	addl	$5, %ecx
	movl	%ecx, -4(%rbp)
	movl	-4(%rbp), %ecx
	addl	$5, %ecx
	movl	%ecx, -4(%rbp)
	movl	-4(%rbp), %ecx
	addl	$5, %ecx
	movl	%ecx, -4(%rbp)
	movl	-4(%rbp), %ecx
	addl	$5, %ecx
	movl	%ecx, -4(%rbp)
	movl	-4(%rbp), %ecx
	addl	$5, %ecx
	movl	%ecx, -4(%rbp)
	movl	-4(%rbp), %ecx
	addl	$5, %ecx
	movl	%ecx, -4(%rbp)
	movl	-4(%rbp), %ecx
	addl	$5, %ecx
	movl	%ecx, -4(%rbp)
	movl	-4(%rbp), %ecx
	addl	$5, %ecx
	movl	%ecx, -4(%rbp)
	movl	-4(%rbp), %ecx
	addl	$5, %ecx
	movl	%ecx, -4(%rbp)
	movl	-4(%rbp), %ecx
	addl	$5, %ecx
	movl	%ecx, -4(%rbp)
	movl	-4(%rbp), %ecx
	addl	$5, %ecx
	movl	%ecx, -4(%rbp)
	movl	-4(%rbp), %ecx
	addl	$5, %ecx
	movl	%ecx, -4(%rbp)
	movl	-4(%rbp), %ecx
	addl	$5, %ecx
	movl	%ecx, -4(%rbp)
	movl	-4(%rbp), %ecx
	addl	$5, %ecx
	movl	%ecx, -4(%rbp)
	movl	-4(%rbp), %ecx
	addl	$5, %ecx
	movl	%ecx, -4(%rbp)
	movl	-4(%rbp), %ecx
	addl	$5, %ecx
	movl	%ecx, -4(%rbp)
	movl	-4(%rbp), %ecx
	addl	$5, %ecx
	movl	%ecx, -4(%rbp)
	movl	-4(%rbp), %ecx
	addl	$5, %ecx
	movl	%ecx, -4(%rbp)
	movl	-4(%rbp), %ecx
	addl	$5, %ecx
	movl	%ecx, -4(%rbp)
	movl	-4(%rbp), %ecx
	addl	$5, %ecx
	movl	%ecx, -4(%rbp)
	movl	-4(%rbp), %ecx
	addl	$5, %ecx
	movl	%ecx, -4(%rbp)
	movl	-4(%rbp), %ecx
	addl	$5, %ecx
	movl	%ecx, -4(%rbp)
	movl	-4(%rbp), %ecx
	addl	$5, %ecx
	movl	%ecx, -4(%rbp)
	movl	-4(%rbp), %ecx
	addl	$5, %ecx
	movl	%ecx, -4(%rbp)
	movl	-4(%rbp), %ecx
	addl	$5, %ecx
	movl	%ecx, -4(%rbp)
	movl	-4(%rbp), %ecx
	addl	$5, %ecx
	movl	%ecx, -4(%rbp)
	movl	-4(%rbp), %ecx
	addl	$5, %ecx
	movl	%ecx, -4(%rbp)
	movl	-4(%rbp), %ecx
	addl	$5, %ecx
	movl	%ecx, -4(%rbp)
	movl	-4(%rbp), %ecx
	addl	$5, %ecx
	movl	%ecx, -4(%rbp)
	movl	-4(%rbp), %ecx
	addl	$5, %ecx
	movl	%ecx, -4(%rbp)
	movl	-4(%rbp), %ecx
	addl	$5, %ecx
	movl	%ecx, -4(%rbp)
	movl	-4(%rbp), %ecx
	addl	$5, %ecx
	movl	%ecx, -4(%rbp)
	movl	-4(%rbp), %ecx
	addl	$5, %ecx
	movl	%ecx, -4(%rbp)
	movl	-4(%rbp), %ecx
	addl	$5, %ecx
	movl	%ecx, -4(%rbp)
	movl	-4(%rbp), %ecx
	addl	$5, %ecx
	movl	%ecx, -4(%rbp)
	movl	-4(%rbp), %ecx
	addl	$5, %ecx
	movl	%ecx, -4(%rbp)
	movl	-4(%rbp), %ecx
	addl	$5, %ecx
	movl	%ecx, -4(%rbp)
	movl	-4(%rbp), %ecx
	addl	$5, %ecx
	movl	%ecx, -4(%rbp)
	movl	-4(%rbp), %ecx
	addl	$5, %ecx
	movl	%ecx, -4(%rbp)
	movl	-4(%rbp), %ecx
	addl	$5, %ecx
	movl	%ecx, -4(%rbp)
	movl	-4(%rbp), %ecx
	addl	$5, %ecx
	movl	%ecx, -4(%rbp)
	movl	-4(%rbp), %ecx
	addl	$5, %ecx
	movl	%ecx, -4(%rbp)
	movl	-4(%rbp), %ecx
	addl	$5, %ecx
	movl	%ecx, -4(%rbp)
	movl	-4(%rbp), %ecx
	addl	$5, %ecx
	movl	%ecx, -4(%rbp)
	movl	-4(%rbp), %ecx
	addl	$5, %ecx
	movl	%ecx, -4(%rbp)
	movl	-4(%rbp), %ecx
	addl	$5, %ecx
	movl	%ecx, -4(%rbp)
	movl	-4(%rbp), %ecx
	addl	$5, %ecx
	movl	%ecx, -4(%rbp)
	movl	-4(%rbp), %ecx
	addl	$5, %ecx
	movl	%ecx, -4(%rbp)
	movl	-4(%rbp), %ecx
	addl	$5, %ecx
	movl	%ecx, -4(%rbp)
	movl	-4(%rbp), %ecx
	addl	$5, %ecx
	movl	%ecx, -4(%rbp)
	movl	-4(%rbp), %ecx
	addl	$5, %ecx
	movl	%ecx, -4(%rbp)
	movl	-4(%rbp), %ecx
	addl	$5, %ecx
	movl	%ecx, -4(%rbp)
	movl	-4(%rbp), %ecx
	addl	$5, %ecx
	movl	%ecx, -4(%rbp)
	movl	-4(%rbp), %ecx
	addl	$5, %ecx
	movl	%ecx, -4(%rbp)
	movl	-4(%rbp), %ecx
	addl	$5, %ecx
	movl	%ecx, -4(%rbp)
	movl	-4(%rbp), %ecx
	addl	$5, %ecx
	movl	%ecx, -4(%rbp)
	movl	-4(%rbp), %ecx
	addl	$5, %ecx
	movl	%ecx, -4(%rbp)
	movl	-4(%rbp), %ecx
	addl	$5, %ecx
	movl	%ecx, -4(%rbp)
	movl	-4(%rbp), %ecx
	addl	$5, %ecx
	movl	%ecx, -4(%rbp)
	movl	-4(%rbp), %ecx
	addl	$5, %ecx
	movl	%ecx, -4(%rbp)
	movl	-4(%rbp), %ecx
	addl	$5, %ecx
	movl	%ecx, -4(%rbp)
	movl	-4(%rbp), %ecx
	addl	$5, %ecx
	movl	%ecx, -4(%rbp)
	movl	-4(%rbp), %ecx
	addl	$5, %ecx
	movl	%ecx, -4(%rbp)
	movl	-4(%rbp), %ecx
	addl	$5, %ecx
	movl	%ecx, -4(%rbp)
	movl	-4(%rbp), %ecx
	addl	$5, %ecx
	movl	%ecx, -4(%rbp)
	movl	-4(%rbp), %ecx
	addl	$5, %ecx
	movl	%ecx, -4(%rbp)
	movl	-4(%rbp), %ecx
	addl	$5, %ecx
	movl	%ecx, -4(%rbp)
	movl	-4(%rbp), %ecx
	addl	$5, %ecx
	movl	%ecx, -4(%rbp)
	movl	-4(%rbp), %ecx
	addl	$5, %ecx
	movl	%ecx, -4(%rbp)
	movl	-4(%rbp), %ecx
	addl	$5, %ecx
	movl	%ecx, -4(%rbp)
	movl	-4(%rbp), %ecx
	addl	$5, %ecx
	movl	%ecx, -4(%rbp)
	movl	-4(%rbp), %ecx
	addl	$5, %ecx
	movl	%ecx, -4(%rbp)
	movl	-4(%rbp), %ecx
	addl	$5, %ecx
	movl	%ecx, -4(%rbp)
	movl	-4(%rbp), %ecx
	addl	$5, %ecx
	movl	%ecx, -4(%rbp)
	movl	-4(%rbp), %ecx
	addl	$5, %ecx
	movl	%ecx, -4(%rbp)
	movl	-4(%rbp), %ecx
	addl	$5, %ecx
	movl	%ecx, -4(%rbp)
	movl	-4(%rbp), %ecx
	addl	$5, %ecx
	movl	%ecx, -4(%rbp)
	movl	-4(%rbp), %ecx
	addl	$5, %ecx
	movl	%ecx, -4(%rbp)
	movl	-4(%rbp), %ecx
	addl	$5, %ecx
	movl	%ecx, -4(%rbp)
	movl	-4(%rbp), %ecx
	addl	$5, %ecx
	movl	%ecx, -4(%rbp)
	movl	-4(%rbp), %ecx
	addl	$5, %ecx
	movl	%ecx, -4(%rbp)
	movl	-4(%rbp), %ecx
	addl	$5, %ecx
	movl	%ecx, -4(%rbp)
	movl	-4(%rbp), %ecx
	addl	$5, %ecx
	movl	%ecx, -4(%rbp)
	movl	-4(%rbp), %ecx
	addl	$5, %ecx
	movl	%ecx, -4(%rbp)
	movl	-4(%rbp), %ecx
	addl	$5, %ecx
	movl	%ecx, -4(%rbp)
	movl	-4(%rbp), %ecx
	addl	$5, %ecx
	movl	%ecx, -4(%rbp)
	movl	-4(%rbp), %ecx
	addl	$5, %ecx
	movl	%ecx, -4(%rbp)
	movl	-4(%rbp), %ecx
	addl	$5, %ecx
	movl	%ecx, -4(%rbp)
	movl	-4(%rbp), %ecx
	addl	$5, %ecx
	movl	%ecx, -4(%rbp)
	movl	-4(%rbp), %ecx
	addl	$5, %ecx
	movl	%ecx, -4(%rbp)
	movl	-4(%rbp), %ecx
	addl	$5, %ecx
	movl	%ecx, -4(%rbp)
	movl	-4(%rbp), %ecx
	addl	$5, %ecx
	movl	%ecx, -4(%rbp)
	movl	-4(%rbp), %ecx
	addl	$5, %ecx
	movl	%ecx, -4(%rbp)
	movl	-4(%rbp), %ecx
	addl	$5, %ecx
	movl	%ecx, -4(%rbp)
	movl	-4(%rbp), %ecx
	addl	$5, %ecx
	movl	%ecx, -4(%rbp)
	movl	-4(%rbp), %ecx
	addl	$5, %ecx
	movl	%ecx, -4(%rbp)
	movl	-4(%rbp), %ecx
	addl	$5, %ecx
	movl	%ecx, -4(%rbp)
	movl	-4(%rbp), %ecx
	addl	$5, %ecx
	movl	%ecx, -4(%rbp)
	movl	-4(%rbp), %ecx
	addl	$5, %ecx
	movl	%ecx, -4(%rbp)
	movl	-4(%rbp), %ecx
	addl	$5, %ecx
	movl	%ecx, -4(%rbp)
	movl	-4(%rbp), %ecx
	addl	$5, %ecx
	movl	%ecx, -4(%rbp)
	movl	-4(%rbp), %ecx
	addl	$5, %ecx
	movl	%ecx, -4(%rbp)
	movl	-4(%rbp), %ecx
	addl	$5, %ecx
	movl	%ecx, -4(%rbp)
	movl	-4(%rbp), %ecx
	addl	$5, %ecx
	movl	%ecx, -4(%rbp)
	movl	-4(%rbp), %ecx
	addl	$5, %ecx
	movl	%ecx, -4(%rbp)
	movl	-4(%rbp), %ecx
	addl	$5, %ecx
	movl	%ecx, -4(%rbp)
	movl	-4(%rbp), %ecx
	addl	$5, %ecx
	movl	%ecx, -4(%rbp)
	movl	-4(%rbp), %ecx
	addl	$5, %ecx
	movl	%ecx, -4(%rbp)
	movl	-4(%rbp), %ecx
	addl	$5, %ecx
	movl	%ecx, -4(%rbp)
	movl	-4(%rbp), %ecx
	addl	$5, %ecx
	movl	%ecx, -4(%rbp)
	movl	-4(%rbp), %ecx
	addl	$5, %ecx
	movl	%ecx, -4(%rbp)
	movl	-4(%rbp), %ecx
	addl	$5, %ecx
	movl	%ecx, -4(%rbp)
	movl	-4(%rbp), %ecx
	addl	$5, %ecx
	movl	%ecx, -4(%rbp)
	movl	-4(%rbp), %ecx
	addl	$5, %ecx
	movl	%ecx, -4(%rbp)
	movl	-4(%rbp), %ecx
	addl	$5, %ecx
	movl	%ecx, -4(%rbp)
	movl	-4(%rbp), %ecx
	addl	$5, %ecx
	movl	%ecx, -4(%rbp)
	movl	-4(%rbp), %ecx
	addl	$5, %ecx
	movl	%ecx, -4(%rbp)
	movl	-4(%rbp), %ecx
	addl	$5, %ecx
	movl	%ecx, -4(%rbp)
	movl	-4(%rbp), %ecx
	addl	$5, %ecx
	movl	%ecx, -4(%rbp)
	movl	-4(%rbp), %ecx
	addl	$5, %ecx
	movl	%ecx, -4(%rbp)
	movl	-4(%rbp), %ecx
	addl	$5, %ecx
	movl	%ecx, -4(%rbp)
	movl	-4(%rbp), %ecx
	addl	$5, %ecx
	movl	%ecx, -4(%rbp)
	movl	-4(%rbp), %ecx
	addl	$5, %ecx
	movl	%ecx, -4(%rbp)
	movl	-4(%rbp), %ecx
	addl	$5, %ecx
	movl	%ecx, -4(%rbp)
	movl	-4(%rbp), %ecx
	addl	$5, %ecx
	movl	%ecx, -4(%rbp)
	movl	-4(%rbp), %ecx
	addl	$5, %ecx
	movl	%ecx, -4(%rbp)
	movl	-4(%rbp), %ecx
	addl	$5, %ecx
	movl	%ecx, -4(%rbp)
	movl	-4(%rbp), %ecx
	addl	$5, %ecx
	movl	%ecx, -4(%rbp)
	movl	-4(%rbp), %ecx
	addl	$5, %ecx
	movl	%ecx, -4(%rbp)
	movl	-4(%rbp), %ecx
	addl	$5, %ecx
	movl	%ecx, -4(%rbp)
	movl	-4(%rbp), %ecx
	addl	$5, %ecx
	movl	%ecx, -4(%rbp)
	movl	-4(%rbp), %ecx
	addl	$5, %ecx
	movl	%ecx, -4(%rbp)
	movl	-4(%rbp), %ecx
	addl	$5, %ecx
	movl	%ecx, -4(%rbp)
	movl	-4(%rbp), %ecx
	addl	$5, %ecx
	movl	%ecx, -4(%rbp)
	movl	-4(%rbp), %ecx
	addl	$5, %ecx
	movl	%ecx, -4(%rbp)
	movl	-4(%rbp), %ecx
	addl	$5, %ecx
	movl	%ecx, -4(%rbp)
	movl	-4(%rbp), %ecx
	addl	$5, %ecx
	movl	%ecx, -4(%rbp)
	movl	-4(%rbp), %ecx
	addl	$5, %ecx
	movl	%ecx, -4(%rbp)
	movl	-4(%rbp), %ecx
	addl	$5, %ecx
	movl	%ecx, -4(%rbp)
	movl	-4(%rbp), %ecx
	addl	$5, %ecx
	movl	%ecx, -4(%rbp)
	movl	-4(%rbp), %ecx
	addl	$5, %ecx
	movl	%ecx, -4(%rbp)
	movl	-4(%rbp), %ecx
	addl	$5, %ecx
	movl	%ecx, -4(%rbp)
	movl	-4(%rbp), %ecx
	addl	$5, %ecx
	movl	%ecx, -4(%rbp)
	movl	-4(%rbp), %ecx
	addl	$5, %ecx
	movl	%ecx, -4(%rbp)
	movl	-4(%rbp), %ecx
	addl	$5, %ecx
	movl	%ecx, -4(%rbp)
	movl	-4(%rbp), %ecx
	addl	$5, %ecx
	movl	%ecx, -4(%rbp)
	movl	-4(%rbp), %ecx
	addl	$5, %ecx
	movl	%ecx, -4(%rbp)
	movl	-4(%rbp), %ecx
	addl	$5, %ecx
	movl	%ecx, -4(%rbp)
	movl	-4(%rbp), %ecx
	addl	$5, %ecx
	movl	%ecx, -4(%rbp)
	movl	-4(%rbp), %ecx
	addl	$5, %ecx
	movl	%ecx, -4(%rbp)
	movl	-4(%rbp), %ecx
	addl	$5, %ecx
	movl	%ecx, -4(%rbp)
	movl	-4(%rbp), %ecx
	addl	$5, %ecx
	movl	%ecx, -4(%rbp)
	movl	-4(%rbp), %ecx
	addl	$5, %ecx
	movl	%ecx, -4(%rbp)
	movl	-4(%rbp), %ecx
	addl	$5, %ecx
	movl	%ecx, -4(%rbp)
	movl	-4(%rbp), %ecx
	addl	$5, %ecx
	movl	%ecx, -4(%rbp)
	movl	-4(%rbp), %ecx
	addl	$5, %ecx
	movl	%ecx, -4(%rbp)
	movl	-4(%rbp), %ecx
	addl	$5, %ecx
	movl	%ecx, -4(%rbp)
	movl	-4(%rbp), %ecx
	addl	$5, %ecx
	movl	%ecx, -4(%rbp)
	movl	-4(%rbp), %ecx
	addl	$5, %ecx
	movl	%ecx, -4(%rbp)
	movl	-4(%rbp), %ecx
	addl	$5, %ecx
	movl	%ecx, -4(%rbp)
	movl	-4(%rbp), %ecx
	addl	$5, %ecx
	movl	%ecx, -4(%rbp)
	movl	-4(%rbp), %ecx
	addl	$5, %ecx
	movl	%ecx, -4(%rbp)
	movl	-4(%rbp), %ecx
	addl	$5, %ecx
	movl	%ecx, -4(%rbp)
	movl	-4(%rbp), %ecx
	addl	$5, %ecx
	movl	%ecx, -4(%rbp)
	movl	-4(%rbp), %ecx
	addl	$5, %ecx
	movl	%ecx, -4(%rbp)
	movl	-4(%rbp), %ecx
	addl	$5, %ecx
	movl	%ecx, -4(%rbp)
	movl	-4(%rbp), %ecx
	addl	$5, %ecx
	movl	%ecx, -4(%rbp)
	movl	-4(%rbp), %ecx
	addl	$5, %ecx
	movl	%ecx, -4(%rbp)
	movl	-4(%rbp), %ecx
	addl	$5, %ecx
	movl	%ecx, -4(%rbp)
	movl	-4(%rbp), %ecx
	addl	$5, %ecx
	movl	%ecx, -4(%rbp)
	movl	-4(%rbp), %ecx
	addl	$5, %ecx
	movl	%ecx, -4(%rbp)
	movl	-4(%rbp), %ecx
	addl	$5, %ecx
	movl	%ecx, -4(%rbp)
	movl	-4(%rbp), %ecx
	addl	$5, %ecx
	movl	%ecx, -4(%rbp)
	movl	-4(%rbp), %ecx
	addl	$5, %ecx
	movl	%ecx, -4(%rbp)
	movl	-4(%rbp), %ecx
	addl	$5, %ecx
	movl	%ecx, -4(%rbp)
	movl	-4(%rbp), %ecx
	addl	$5, %ecx
	movl	%ecx, -4(%rbp)
	movl	-4(%rbp), %ecx
	addl	$5, %ecx
	movl	%ecx, -4(%rbp)
	movl	-4(%rbp), %ecx
	addl	$5, %ecx
	movl	%ecx, -4(%rbp)
	movl	-4(%rbp), %ecx
	addl	$5, %ecx
	movl	%ecx, -4(%rbp)
	movl	-4(%rbp), %ecx
	addl	$5, %ecx
	movl	%ecx, -4(%rbp)
	movl	-4(%rbp), %ecx
	addl	$5, %ecx
	movl	%ecx, -4(%rbp)
	movl	-4(%rbp), %ecx
	addl	$5, %ecx
	movl	%ecx, -4(%rbp)
	movl	-4(%rbp), %ecx
	addl	$5, %ecx
	movl	%ecx, -4(%rbp)
	movl	-4(%rbp), %ecx
	addl	$5, %ecx
	movl	%ecx, -4(%rbp)
	movl	-4(%rbp), %ecx
	addl	$5, %ecx
	movl	%ecx, -4(%rbp)
	movl	-4(%rbp), %ecx
	addl	$5, %ecx
	movl	%ecx, -4(%rbp)
	movl	-4(%rbp), %ecx
	addl	$5, %ecx
	movl	%ecx, -4(%rbp)
	movl	-4(%rbp), %ecx
	addl	$5, %ecx
	movl	%ecx, -4(%rbp)
	movl	-4(%rbp), %ecx
	addl	$5, %ecx
	movl	%ecx, -4(%rbp)
	movl	-4(%rbp), %ecx
	addl	$5, %ecx
	movl	%ecx, -4(%rbp)
	movl	-4(%rbp), %ecx
	addl	$5, %ecx
	movl	%ecx, -4(%rbp)
	movl	-4(%rbp), %ecx
	addl	$5, %ecx
	movl	%ecx, -4(%rbp)
	movl	-4(%rbp), %ecx
	addl	$5, %ecx
	movl	%ecx, -4(%rbp)
	movl	-4(%rbp), %ecx
	addl	$5, %ecx
	movl	%ecx, -4(%rbp)
	movl	-4(%rbp), %ecx
	addl	$5, %ecx
	movl	%ecx, -4(%rbp)
	movl	-4(%rbp), %ecx
	addl	$5, %ecx
	movl	%ecx, -4(%rbp)
	movl	-4(%rbp), %ecx
	addl	$5, %ecx
	movl	%ecx, -4(%rbp)
	movl	-4(%rbp), %ecx
	addl	$5, %ecx
	movl	%ecx, -4(%rbp)
	movl	-4(%rbp), %ecx
	addl	$5, %ecx
	movl	%ecx, -4(%rbp)
	movl	-4(%rbp), %ecx
	addl	$5, %ecx
	movl	%ecx, -4(%rbp)
	movl	-4(%rbp), %ecx
	addl	$5, %ecx
	movl	%ecx, -4(%rbp)
	movl	-4(%rbp), %ecx
	addl	$5, %ecx
	movl	%ecx, -4(%rbp)
	movl	-4(%rbp), %ecx
	addl	$5, %ecx
	movl	%ecx, -4(%rbp)
	movl	-4(%rbp), %ecx
	addl	$5, %ecx
	movl	%ecx, -4(%rbp)
	movl	-4(%rbp), %ecx
	addl	$5, %ecx
	movl	%ecx, -4(%rbp)
	movl	-4(%rbp), %ecx
	addl	$5, %ecx
	movl	%ecx, -4(%rbp)
	movl	-4(%rbp), %ecx
	addl	$5, %ecx
	movl	%ecx, -4(%rbp)
	movl	-4(%rbp), %ecx
	addl	$5, %ecx
	movl	%ecx, -4(%rbp)
	movl	-4(%rbp), %ecx
	addl	$5, %ecx
	movl	%ecx, -4(%rbp)
	movl	-4(%rbp), %ecx
	addl	$5, %ecx
	movl	%ecx, -4(%rbp)
	movl	-4(%rbp), %ecx
	addl	$5, %ecx
	movl	%ecx, -4(%rbp)
	movl	-4(%rbp), %ecx
	addl	$5, %ecx
	movl	%ecx, -4(%rbp)
	movl	-4(%rbp), %ecx
	addl	$5, %ecx
	movl	%ecx, -4(%rbp)
	movl	-4(%rbp), %ecx
	addl	$5, %ecx
	movl	%ecx, -4(%rbp)
	movl	-4(%rbp), %ecx
	addl	$5, %ecx
	movl	%ecx, -4(%rbp)
	movl	-4(%rbp), %ecx
	addl	$5, %ecx
	movl	%ecx, -4(%rbp)
	movl	-4(%rbp), %ecx
	addl	$5, %ecx
	movl	%ecx, -4(%rbp)
	movl	-4(%rbp), %ecx
	addl	$5, %ecx
	movl	%ecx, -4(%rbp)
	movl	-4(%rbp), %ecx
	addl	$5, %ecx
	movl	%ecx, -4(%rbp)
	movl	-4(%rbp), %ecx
	addl	$5, %ecx
	movl	%ecx, -4(%rbp)
	movl	-4(%rbp), %ecx
	addl	$5, %ecx
	movl	%ecx, -4(%rbp)
	movl	-4(%rbp), %ecx
	addl	$5, %ecx
	movl	%ecx, -4(%rbp)
	movl	-4(%rbp), %ecx
	addl	$5, %ecx
	movl	%ecx, -4(%rbp)
	movl	-4(%rbp), %ecx
	addl	$5, %ecx
	movl	%ecx, -4(%rbp)
	movl	-4(%rbp), %ecx
	addl	$5, %ecx
	movl	%ecx, -4(%rbp)
	movl	-4(%rbp), %ecx
	addl	$5, %ecx
	movl	%ecx, -4(%rbp)
	movl	-4(%rbp), %ecx
	addl	$5, %ecx
	movl	%ecx, -4(%rbp)
	movl	-4(%rbp), %ecx
	addl	$5, %ecx
	movl	%ecx, -4(%rbp)
	movl	-4(%rbp), %ecx
	addl	$5, %ecx
	movl	%ecx, -4(%rbp)
	movl	-4(%rbp), %ecx
	addl	$5, %ecx
	movl	%ecx, -4(%rbp)
	movl	-4(%rbp), %ecx
	addl	$5, %ecx
	movl	%ecx, -4(%rbp)
	movl	-4(%rbp), %ecx
	addl	$5, %ecx
	movl	%ecx, -4(%rbp)
	movl	-4(%rbp), %ecx
	addl	$5, %ecx
	movl	%ecx, -4(%rbp)
	movl	-4(%rbp), %ecx
	addl	$5, %ecx
	movl	%ecx, -4(%rbp)
	movl	-4(%rbp), %ecx
	addl	$5, %ecx
	movl	%ecx, -4(%rbp)
	movl	-4(%rbp), %ecx
	addl	$5, %ecx
	movl	%ecx, -4(%rbp)
	movl	-4(%rbp), %ecx
	addl	$5, %ecx
	movl	%ecx, -4(%rbp)
	movl	-4(%rbp), %ecx
	addl	$5, %ecx
	movl	%ecx, -4(%rbp)
	movl	-4(%rbp), %ecx
	addl	$5, %ecx
	movl	%ecx, -4(%rbp)
	movl	-4(%rbp), %ecx
	addl	$5, %ecx
	movl	%ecx, -4(%rbp)
	movl	-4(%rbp), %ecx
	addl	$5, %ecx
	movl	%ecx, -4(%rbp)
	movl	-4(%rbp), %ecx
	addl	$5, %ecx
	movl	%ecx, -4(%rbp)
	movl	-4(%rbp), %ecx
	addl	$5, %ecx
	movl	%ecx, -4(%rbp)
	movl	-4(%rbp), %ecx
	addl	$5, %ecx
	movl	%ecx, -4(%rbp)
	movl	-4(%rbp), %ecx
	addl	$5, %ecx
	movl	%ecx, -4(%rbp)
	movl	-4(%rbp), %ecx
	addl	$5, %ecx
	movl	%ecx, -4(%rbp)
	movl	-4(%rbp), %ecx
	addl	$5, %ecx
	movl	%ecx, -4(%rbp)
	movl	-4(%rbp), %ecx
	addl	$5, %ecx
	movl	%ecx, -4(%rbp)
	movl	-4(%rbp), %ecx
	addl	$5, %ecx
	movl	%ecx, -4(%rbp)
	movl	-4(%rbp), %ecx
	addl	$5, %ecx
	movl	%ecx, -4(%rbp)
	movl	-4(%rbp), %ecx
	addl	$5, %ecx
	movl	%ecx, -4(%rbp)
	movl	-4(%rbp), %ecx
	addl	$5, %ecx
	movl	%ecx, -4(%rbp)
	movl	-4(%rbp), %ecx
	addl	$5, %ecx
	movl	%ecx, -4(%rbp)
	movl	-4(%rbp), %ecx
	addl	$5, %ecx
	movl	%ecx, -4(%rbp)
	movl	-4(%rbp), %ecx
	addl	$5, %ecx
	movl	%ecx, -4(%rbp)
	movl	-4(%rbp), %ecx
	addl	$5, %ecx
	movl	%ecx, -4(%rbp)
	movl	-4(%rbp), %ecx
	addl	$5, %ecx
	movl	%ecx, -4(%rbp)
	movl	-4(%rbp), %ecx
	addl	$5, %ecx
	movl	%ecx, -4(%rbp)
	movl	-4(%rbp), %ecx
	addl	$5, %ecx
	movl	%ecx, -4(%rbp)
	movl	-4(%rbp), %ecx
	addl	$5, %ecx
	movl	%ecx, -4(%rbp)
	movl	-4(%rbp), %ecx
	addl	$5, %ecx
	movl	%ecx, -4(%rbp)
	movl	-4(%rbp), %ecx
	addl	$5, %ecx
	movl	%ecx, -4(%rbp)
	movl	-4(%rbp), %ecx
	addl	$5, %ecx
	movl	%ecx, -4(%rbp)
	movl	-4(%rbp), %ecx
	addl	$5, %ecx
	movl	%ecx, -4(%rbp)
	movl	-4(%rbp), %ecx
	addl	$5, %ecx
	movl	%ecx, -4(%rbp)
	callq	_mach_absolute_time
	leaq	L_.str(%rip), %rdi
	movq	%rax, -24(%rbp)
	movl	-4(%rbp), %esi
	movq	-24(%rbp), %rax
	subq	-16(%rbp), %rax
	movq	%rax, %rdx
	movb	$0, %al
	callq	_printf
	movl	%eax, -28(%rbp)         ## 4-byte Spill
	addq	$32, %rsp
	popq	%rbp
	retq
	.cfi_endproc

	.globl	_write_helper
	.align	4, 0x90
_write_helper:                          ## @write_helper
	.cfi_startproc
## BB#0:
	pushq	%rbp
Ltmp6:
	.cfi_def_cfa_offset 16
Ltmp7:
	.cfi_offset %rbp, -16
	movq	%rsp, %rbp
Ltmp8:
	.cfi_def_cfa_register %rbp
	subq	$32, %rsp
	movl	$4000, %eax             ## imm = 0xFA0
	movl	%eax, %edi
	callq	_malloc
	movq	%rax, -8(%rbp)
	callq	_mach_absolute_time
	movq	%rax, -16(%rbp)
	movq	-8(%rbp), %rax
	movl	$5, (%rax)
	movq	-8(%rbp), %rax
	movl	$5, 4(%rax)
	movq	-8(%rbp), %rax
	movl	$5, 8(%rax)
	movq	-8(%rbp), %rax
	movl	$5, 12(%rax)
	movq	-8(%rbp), %rax
	movl	$5, 16(%rax)
	movq	-8(%rbp), %rax
	movl	$5, 20(%rax)
	movq	-8(%rbp), %rax
	movl	$5, 24(%rax)
	movq	-8(%rbp), %rax
	movl	$5, 28(%rax)
	movq	-8(%rbp), %rax
	movl	$5, 32(%rax)
	movq	-8(%rbp), %rax
	movl	$5, 36(%rax)
	movq	-8(%rbp), %rax
	movl	$5, 40(%rax)
	movq	-8(%rbp), %rax
	movl	$5, 44(%rax)
	movq	-8(%rbp), %rax
	movl	$5, 48(%rax)
	movq	-8(%rbp), %rax
	movl	$5, 52(%rax)
	movq	-8(%rbp), %rax
	movl	$5, 56(%rax)
	movq	-8(%rbp), %rax
	movl	$5, 60(%rax)
	movq	-8(%rbp), %rax
	movl	$5, 64(%rax)
	movq	-8(%rbp), %rax
	movl	$5, 68(%rax)
	movq	-8(%rbp), %rax
	movl	$5, 72(%rax)
	movq	-8(%rbp), %rax
	movl	$5, 76(%rax)
	movq	-8(%rbp), %rax
	movl	$5, 80(%rax)
	movq	-8(%rbp), %rax
	movl	$5, 84(%rax)
	movq	-8(%rbp), %rax
	movl	$5, 88(%rax)
	movq	-8(%rbp), %rax
	movl	$5, 92(%rax)
	movq	-8(%rbp), %rax
	movl	$5, 96(%rax)
	movq	-8(%rbp), %rax
	movl	$5, 100(%rax)
	movq	-8(%rbp), %rax
	movl	$5, 104(%rax)
	movq	-8(%rbp), %rax
	movl	$5, 108(%rax)
	movq	-8(%rbp), %rax
	movl	$5, 112(%rax)
	movq	-8(%rbp), %rax
	movl	$5, 116(%rax)
	movq	-8(%rbp), %rax
	movl	$5, 120(%rax)
	movq	-8(%rbp), %rax
	movl	$5, 124(%rax)
	movq	-8(%rbp), %rax
	movl	$5, 128(%rax)
	movq	-8(%rbp), %rax
	movl	$5, 132(%rax)
	movq	-8(%rbp), %rax
	movl	$5, 136(%rax)
	movq	-8(%rbp), %rax
	movl	$5, 140(%rax)
	movq	-8(%rbp), %rax
	movl	$5, 144(%rax)
	movq	-8(%rbp), %rax
	movl	$5, 148(%rax)
	movq	-8(%rbp), %rax
	movl	$5, 152(%rax)
	movq	-8(%rbp), %rax
	movl	$5, 156(%rax)
	movq	-8(%rbp), %rax
	movl	$5, 160(%rax)
	movq	-8(%rbp), %rax
	movl	$5, 164(%rax)
	movq	-8(%rbp), %rax
	movl	$5, 168(%rax)
	movq	-8(%rbp), %rax
	movl	$5, 172(%rax)
	movq	-8(%rbp), %rax
	movl	$5, 176(%rax)
	movq	-8(%rbp), %rax
	movl	$5, 180(%rax)
	movq	-8(%rbp), %rax
	movl	$5, 184(%rax)
	movq	-8(%rbp), %rax
	movl	$5, 188(%rax)
	movq	-8(%rbp), %rax
	movl	$5, 192(%rax)
	movq	-8(%rbp), %rax
	movl	$5, 196(%rax)
	movq	-8(%rbp), %rax
	movl	$5, 200(%rax)
	movq	-8(%rbp), %rax
	movl	$5, 204(%rax)
	movq	-8(%rbp), %rax
	movl	$5, 208(%rax)
	movq	-8(%rbp), %rax
	movl	$5, 212(%rax)
	movq	-8(%rbp), %rax
	movl	$5, 216(%rax)
	movq	-8(%rbp), %rax
	movl	$5, 220(%rax)
	movq	-8(%rbp), %rax
	movl	$5, 224(%rax)
	movq	-8(%rbp), %rax
	movl	$5, 228(%rax)
	movq	-8(%rbp), %rax
	movl	$5, 232(%rax)
	movq	-8(%rbp), %rax
	movl	$5, 236(%rax)
	movq	-8(%rbp), %rax
	movl	$5, 240(%rax)
	movq	-8(%rbp), %rax
	movl	$5, 244(%rax)
	movq	-8(%rbp), %rax
	movl	$5, 248(%rax)
	movq	-8(%rbp), %rax
	movl	$5, 252(%rax)
	movq	-8(%rbp), %rax
	movl	$5, 256(%rax)
	movq	-8(%rbp), %rax
	movl	$5, 260(%rax)
	movq	-8(%rbp), %rax
	movl	$5, 264(%rax)
	movq	-8(%rbp), %rax
	movl	$5, 268(%rax)
	movq	-8(%rbp), %rax
	movl	$5, 272(%rax)
	movq	-8(%rbp), %rax
	movl	$5, 276(%rax)
	movq	-8(%rbp), %rax
	movl	$5, 280(%rax)
	movq	-8(%rbp), %rax
	movl	$5, 284(%rax)
	movq	-8(%rbp), %rax
	movl	$5, 288(%rax)
	movq	-8(%rbp), %rax
	movl	$5, 292(%rax)
	movq	-8(%rbp), %rax
	movl	$5, 296(%rax)
	movq	-8(%rbp), %rax
	movl	$5, 300(%rax)
	movq	-8(%rbp), %rax
	movl	$5, 304(%rax)
	movq	-8(%rbp), %rax
	movl	$5, 308(%rax)
	movq	-8(%rbp), %rax
	movl	$5, 312(%rax)
	movq	-8(%rbp), %rax
	movl	$5, 316(%rax)
	movq	-8(%rbp), %rax
	movl	$5, 320(%rax)
	movq	-8(%rbp), %rax
	movl	$5, 324(%rax)
	movq	-8(%rbp), %rax
	movl	$5, 328(%rax)
	movq	-8(%rbp), %rax
	movl	$5, 332(%rax)
	movq	-8(%rbp), %rax
	movl	$5, 336(%rax)
	movq	-8(%rbp), %rax
	movl	$5, 340(%rax)
	movq	-8(%rbp), %rax
	movl	$5, 344(%rax)
	movq	-8(%rbp), %rax
	movl	$5, 348(%rax)
	movq	-8(%rbp), %rax
	movl	$5, 352(%rax)
	movq	-8(%rbp), %rax
	movl	$5, 356(%rax)
	movq	-8(%rbp), %rax
	movl	$5, 360(%rax)
	movq	-8(%rbp), %rax
	movl	$5, 364(%rax)
	movq	-8(%rbp), %rax
	movl	$5, 368(%rax)
	movq	-8(%rbp), %rax
	movl	$5, 372(%rax)
	movq	-8(%rbp), %rax
	movl	$5, 376(%rax)
	movq	-8(%rbp), %rax
	movl	$5, 380(%rax)
	movq	-8(%rbp), %rax
	movl	$5, 384(%rax)
	movq	-8(%rbp), %rax
	movl	$5, 388(%rax)
	movq	-8(%rbp), %rax
	movl	$5, 392(%rax)
	movq	-8(%rbp), %rax
	movl	$5, 396(%rax)
	movq	-8(%rbp), %rax
	movl	$5, 400(%rax)
	movq	-8(%rbp), %rax
	movl	$5, 404(%rax)
	movq	-8(%rbp), %rax
	movl	$5, 408(%rax)
	movq	-8(%rbp), %rax
	movl	$5, 412(%rax)
	movq	-8(%rbp), %rax
	movl	$5, 416(%rax)
	movq	-8(%rbp), %rax
	movl	$5, 420(%rax)
	movq	-8(%rbp), %rax
	movl	$5, 424(%rax)
	movq	-8(%rbp), %rax
	movl	$5, 428(%rax)
	movq	-8(%rbp), %rax
	movl	$5, 432(%rax)
	movq	-8(%rbp), %rax
	movl	$5, 436(%rax)
	movq	-8(%rbp), %rax
	movl	$5, 440(%rax)
	movq	-8(%rbp), %rax
	movl	$5, 444(%rax)
	movq	-8(%rbp), %rax
	movl	$5, 448(%rax)
	movq	-8(%rbp), %rax
	movl	$5, 452(%rax)
	movq	-8(%rbp), %rax
	movl	$5, 456(%rax)
	movq	-8(%rbp), %rax
	movl	$5, 460(%rax)
	movq	-8(%rbp), %rax
	movl	$5, 464(%rax)
	movq	-8(%rbp), %rax
	movl	$5, 468(%rax)
	movq	-8(%rbp), %rax
	movl	$5, 472(%rax)
	movq	-8(%rbp), %rax
	movl	$5, 476(%rax)
	movq	-8(%rbp), %rax
	movl	$5, 480(%rax)
	movq	-8(%rbp), %rax
	movl	$5, 484(%rax)
	movq	-8(%rbp), %rax
	movl	$5, 488(%rax)
	movq	-8(%rbp), %rax
	movl	$5, 492(%rax)
	movq	-8(%rbp), %rax
	movl	$5, 496(%rax)
	movq	-8(%rbp), %rax
	movl	$5, 500(%rax)
	movq	-8(%rbp), %rax
	movl	$5, 504(%rax)
	movq	-8(%rbp), %rax
	movl	$5, 508(%rax)
	movq	-8(%rbp), %rax
	movl	$5, 512(%rax)
	movq	-8(%rbp), %rax
	movl	$5, 516(%rax)
	movq	-8(%rbp), %rax
	movl	$5, 520(%rax)
	movq	-8(%rbp), %rax
	movl	$5, 524(%rax)
	movq	-8(%rbp), %rax
	movl	$5, 528(%rax)
	movq	-8(%rbp), %rax
	movl	$5, 532(%rax)
	movq	-8(%rbp), %rax
	movl	$5, 536(%rax)
	movq	-8(%rbp), %rax
	movl	$5, 540(%rax)
	movq	-8(%rbp), %rax
	movl	$5, 544(%rax)
	movq	-8(%rbp), %rax
	movl	$5, 548(%rax)
	movq	-8(%rbp), %rax
	movl	$5, 552(%rax)
	movq	-8(%rbp), %rax
	movl	$5, 556(%rax)
	movq	-8(%rbp), %rax
	movl	$5, 560(%rax)
	movq	-8(%rbp), %rax
	movl	$5, 564(%rax)
	movq	-8(%rbp), %rax
	movl	$5, 568(%rax)
	movq	-8(%rbp), %rax
	movl	$5, 572(%rax)
	movq	-8(%rbp), %rax
	movl	$5, 576(%rax)
	movq	-8(%rbp), %rax
	movl	$5, 580(%rax)
	movq	-8(%rbp), %rax
	movl	$5, 584(%rax)
	movq	-8(%rbp), %rax
	movl	$5, 588(%rax)
	movq	-8(%rbp), %rax
	movl	$5, 592(%rax)
	movq	-8(%rbp), %rax
	movl	$5, 596(%rax)
	movq	-8(%rbp), %rax
	movl	$5, 600(%rax)
	movq	-8(%rbp), %rax
	movl	$5, 604(%rax)
	movq	-8(%rbp), %rax
	movl	$5, 608(%rax)
	movq	-8(%rbp), %rax
	movl	$5, 612(%rax)
	movq	-8(%rbp), %rax
	movl	$5, 616(%rax)
	movq	-8(%rbp), %rax
	movl	$5, 620(%rax)
	movq	-8(%rbp), %rax
	movl	$5, 624(%rax)
	movq	-8(%rbp), %rax
	movl	$5, 628(%rax)
	movq	-8(%rbp), %rax
	movl	$5, 632(%rax)
	movq	-8(%rbp), %rax
	movl	$5, 636(%rax)
	movq	-8(%rbp), %rax
	movl	$5, 640(%rax)
	movq	-8(%rbp), %rax
	movl	$5, 644(%rax)
	movq	-8(%rbp), %rax
	movl	$5, 648(%rax)
	movq	-8(%rbp), %rax
	movl	$5, 652(%rax)
	movq	-8(%rbp), %rax
	movl	$5, 656(%rax)
	movq	-8(%rbp), %rax
	movl	$5, 660(%rax)
	movq	-8(%rbp), %rax
	movl	$5, 664(%rax)
	movq	-8(%rbp), %rax
	movl	$5, 668(%rax)
	movq	-8(%rbp), %rax
	movl	$5, 672(%rax)
	movq	-8(%rbp), %rax
	movl	$5, 676(%rax)
	movq	-8(%rbp), %rax
	movl	$5, 680(%rax)
	movq	-8(%rbp), %rax
	movl	$5, 684(%rax)
	movq	-8(%rbp), %rax
	movl	$5, 688(%rax)
	movq	-8(%rbp), %rax
	movl	$5, 692(%rax)
	movq	-8(%rbp), %rax
	movl	$5, 696(%rax)
	movq	-8(%rbp), %rax
	movl	$5, 700(%rax)
	movq	-8(%rbp), %rax
	movl	$5, 704(%rax)
	movq	-8(%rbp), %rax
	movl	$5, 708(%rax)
	movq	-8(%rbp), %rax
	movl	$5, 712(%rax)
	movq	-8(%rbp), %rax
	movl	$5, 716(%rax)
	movq	-8(%rbp), %rax
	movl	$5, 720(%rax)
	movq	-8(%rbp), %rax
	movl	$5, 724(%rax)
	movq	-8(%rbp), %rax
	movl	$5, 728(%rax)
	movq	-8(%rbp), %rax
	movl	$5, 732(%rax)
	movq	-8(%rbp), %rax
	movl	$5, 736(%rax)
	movq	-8(%rbp), %rax
	movl	$5, 740(%rax)
	movq	-8(%rbp), %rax
	movl	$5, 744(%rax)
	movq	-8(%rbp), %rax
	movl	$5, 748(%rax)
	movq	-8(%rbp), %rax
	movl	$5, 752(%rax)
	movq	-8(%rbp), %rax
	movl	$5, 756(%rax)
	movq	-8(%rbp), %rax
	movl	$5, 760(%rax)
	movq	-8(%rbp), %rax
	movl	$5, 764(%rax)
	movq	-8(%rbp), %rax
	movl	$5, 768(%rax)
	movq	-8(%rbp), %rax
	movl	$5, 772(%rax)
	movq	-8(%rbp), %rax
	movl	$5, 776(%rax)
	movq	-8(%rbp), %rax
	movl	$5, 780(%rax)
	movq	-8(%rbp), %rax
	movl	$5, 784(%rax)
	movq	-8(%rbp), %rax
	movl	$5, 788(%rax)
	movq	-8(%rbp), %rax
	movl	$5, 792(%rax)
	movq	-8(%rbp), %rax
	movl	$5, 796(%rax)
	movq	-8(%rbp), %rax
	movl	$5, 800(%rax)
	movq	-8(%rbp), %rax
	movl	$5, 804(%rax)
	movq	-8(%rbp), %rax
	movl	$5, 808(%rax)
	movq	-8(%rbp), %rax
	movl	$5, 812(%rax)
	movq	-8(%rbp), %rax
	movl	$5, 816(%rax)
	movq	-8(%rbp), %rax
	movl	$5, 820(%rax)
	movq	-8(%rbp), %rax
	movl	$5, 824(%rax)
	movq	-8(%rbp), %rax
	movl	$5, 828(%rax)
	movq	-8(%rbp), %rax
	movl	$5, 832(%rax)
	movq	-8(%rbp), %rax
	movl	$5, 836(%rax)
	movq	-8(%rbp), %rax
	movl	$5, 840(%rax)
	movq	-8(%rbp), %rax
	movl	$5, 844(%rax)
	movq	-8(%rbp), %rax
	movl	$5, 848(%rax)
	movq	-8(%rbp), %rax
	movl	$5, 852(%rax)
	movq	-8(%rbp), %rax
	movl	$5, 856(%rax)
	movq	-8(%rbp), %rax
	movl	$5, 860(%rax)
	movq	-8(%rbp), %rax
	movl	$5, 864(%rax)
	movq	-8(%rbp), %rax
	movl	$5, 868(%rax)
	movq	-8(%rbp), %rax
	movl	$5, 872(%rax)
	movq	-8(%rbp), %rax
	movl	$5, 876(%rax)
	movq	-8(%rbp), %rax
	movl	$5, 880(%rax)
	movq	-8(%rbp), %rax
	movl	$5, 884(%rax)
	movq	-8(%rbp), %rax
	movl	$5, 888(%rax)
	movq	-8(%rbp), %rax
	movl	$5, 892(%rax)
	movq	-8(%rbp), %rax
	movl	$5, 896(%rax)
	movq	-8(%rbp), %rax
	movl	$5, 900(%rax)
	movq	-8(%rbp), %rax
	movl	$5, 904(%rax)
	movq	-8(%rbp), %rax
	movl	$5, 908(%rax)
	movq	-8(%rbp), %rax
	movl	$5, 912(%rax)
	movq	-8(%rbp), %rax
	movl	$5, 916(%rax)
	movq	-8(%rbp), %rax
	movl	$5, 920(%rax)
	movq	-8(%rbp), %rax
	movl	$5, 924(%rax)
	movq	-8(%rbp), %rax
	movl	$5, 928(%rax)
	movq	-8(%rbp), %rax
	movl	$5, 932(%rax)
	movq	-8(%rbp), %rax
	movl	$5, 936(%rax)
	movq	-8(%rbp), %rax
	movl	$5, 940(%rax)
	movq	-8(%rbp), %rax
	movl	$5, 944(%rax)
	movq	-8(%rbp), %rax
	movl	$5, 948(%rax)
	movq	-8(%rbp), %rax
	movl	$5, 952(%rax)
	movq	-8(%rbp), %rax
	movl	$5, 956(%rax)
	movq	-8(%rbp), %rax
	movl	$5, 960(%rax)
	movq	-8(%rbp), %rax
	movl	$5, 964(%rax)
	movq	-8(%rbp), %rax
	movl	$5, 968(%rax)
	movq	-8(%rbp), %rax
	movl	$5, 972(%rax)
	movq	-8(%rbp), %rax
	movl	$5, 976(%rax)
	movq	-8(%rbp), %rax
	movl	$5, 980(%rax)
	movq	-8(%rbp), %rax
	movl	$5, 984(%rax)
	movq	-8(%rbp), %rax
	movl	$5, 988(%rax)
	movq	-8(%rbp), %rax
	movl	$5, 992(%rax)
	movq	-8(%rbp), %rax
	movl	$5, 996(%rax)
	movq	-8(%rbp), %rax
	movl	$5, 1000(%rax)
	movq	-8(%rbp), %rax
	movl	$5, 1004(%rax)
	movq	-8(%rbp), %rax
	movl	$5, 1008(%rax)
	movq	-8(%rbp), %rax
	movl	$5, 1012(%rax)
	movq	-8(%rbp), %rax
	movl	$5, 1016(%rax)
	movq	-8(%rbp), %rax
	movl	$5, 1020(%rax)
	movq	-8(%rbp), %rax
	movl	$5, 1024(%rax)
	movq	-8(%rbp), %rax
	movl	$5, 1028(%rax)
	movq	-8(%rbp), %rax
	movl	$5, 1032(%rax)
	movq	-8(%rbp), %rax
	movl	$5, 1036(%rax)
	movq	-8(%rbp), %rax
	movl	$5, 1040(%rax)
	movq	-8(%rbp), %rax
	movl	$5, 1044(%rax)
	movq	-8(%rbp), %rax
	movl	$5, 1048(%rax)
	movq	-8(%rbp), %rax
	movl	$5, 1052(%rax)
	movq	-8(%rbp), %rax
	movl	$5, 1056(%rax)
	movq	-8(%rbp), %rax
	movl	$5, 1060(%rax)
	movq	-8(%rbp), %rax
	movl	$5, 1064(%rax)
	movq	-8(%rbp), %rax
	movl	$5, 1068(%rax)
	movq	-8(%rbp), %rax
	movl	$5, 1072(%rax)
	movq	-8(%rbp), %rax
	movl	$5, 1076(%rax)
	movq	-8(%rbp), %rax
	movl	$5, 1080(%rax)
	movq	-8(%rbp), %rax
	movl	$5, 1084(%rax)
	movq	-8(%rbp), %rax
	movl	$5, 1088(%rax)
	movq	-8(%rbp), %rax
	movl	$5, 1092(%rax)
	movq	-8(%rbp), %rax
	movl	$5, 1096(%rax)
	movq	-8(%rbp), %rax
	movl	$5, 1100(%rax)
	movq	-8(%rbp), %rax
	movl	$5, 1104(%rax)
	movq	-8(%rbp), %rax
	movl	$5, 1108(%rax)
	movq	-8(%rbp), %rax
	movl	$5, 1112(%rax)
	movq	-8(%rbp), %rax
	movl	$5, 1116(%rax)
	movq	-8(%rbp), %rax
	movl	$5, 1120(%rax)
	movq	-8(%rbp), %rax
	movl	$5, 1124(%rax)
	movq	-8(%rbp), %rax
	movl	$5, 1128(%rax)
	movq	-8(%rbp), %rax
	movl	$5, 1132(%rax)
	movq	-8(%rbp), %rax
	movl	$5, 1136(%rax)
	movq	-8(%rbp), %rax
	movl	$5, 1140(%rax)
	movq	-8(%rbp), %rax
	movl	$5, 1144(%rax)
	movq	-8(%rbp), %rax
	movl	$5, 1148(%rax)
	movq	-8(%rbp), %rax
	movl	$5, 1152(%rax)
	movq	-8(%rbp), %rax
	movl	$5, 1156(%rax)
	movq	-8(%rbp), %rax
	movl	$5, 1160(%rax)
	movq	-8(%rbp), %rax
	movl	$5, 1164(%rax)
	movq	-8(%rbp), %rax
	movl	$5, 1168(%rax)
	movq	-8(%rbp), %rax
	movl	$5, 1172(%rax)
	movq	-8(%rbp), %rax
	movl	$5, 1176(%rax)
	movq	-8(%rbp), %rax
	movl	$5, 1180(%rax)
	movq	-8(%rbp), %rax
	movl	$5, 1184(%rax)
	movq	-8(%rbp), %rax
	movl	$5, 1188(%rax)
	movq	-8(%rbp), %rax
	movl	$5, 1192(%rax)
	movq	-8(%rbp), %rax
	movl	$5, 1196(%rax)
	movq	-8(%rbp), %rax
	movl	$5, 1200(%rax)
	movq	-8(%rbp), %rax
	movl	$5, 1204(%rax)
	movq	-8(%rbp), %rax
	movl	$5, 1208(%rax)
	movq	-8(%rbp), %rax
	movl	$5, 1212(%rax)
	movq	-8(%rbp), %rax
	movl	$5, 1216(%rax)
	movq	-8(%rbp), %rax
	movl	$5, 1220(%rax)
	movq	-8(%rbp), %rax
	movl	$5, 1224(%rax)
	movq	-8(%rbp), %rax
	movl	$5, 1228(%rax)
	movq	-8(%rbp), %rax
	movl	$5, 1232(%rax)
	movq	-8(%rbp), %rax
	movl	$5, 1236(%rax)
	movq	-8(%rbp), %rax
	movl	$5, 1240(%rax)
	movq	-8(%rbp), %rax
	movl	$5, 1244(%rax)
	movq	-8(%rbp), %rax
	movl	$5, 1248(%rax)
	movq	-8(%rbp), %rax
	movl	$5, 1252(%rax)
	movq	-8(%rbp), %rax
	movl	$5, 1256(%rax)
	movq	-8(%rbp), %rax
	movl	$5, 1260(%rax)
	movq	-8(%rbp), %rax
	movl	$5, 1264(%rax)
	movq	-8(%rbp), %rax
	movl	$5, 1268(%rax)
	movq	-8(%rbp), %rax
	movl	$5, 1272(%rax)
	movq	-8(%rbp), %rax
	movl	$5, 1276(%rax)
	movq	-8(%rbp), %rax
	movl	$5, 1280(%rax)
	movq	-8(%rbp), %rax
	movl	$5, 1284(%rax)
	movq	-8(%rbp), %rax
	movl	$5, 1288(%rax)
	movq	-8(%rbp), %rax
	movl	$5, 1292(%rax)
	movq	-8(%rbp), %rax
	movl	$5, 1296(%rax)
	movq	-8(%rbp), %rax
	movl	$5, 1300(%rax)
	movq	-8(%rbp), %rax
	movl	$5, 1304(%rax)
	movq	-8(%rbp), %rax
	movl	$5, 1308(%rax)
	movq	-8(%rbp), %rax
	movl	$5, 1312(%rax)
	movq	-8(%rbp), %rax
	movl	$5, 1316(%rax)
	movq	-8(%rbp), %rax
	movl	$5, 1320(%rax)
	movq	-8(%rbp), %rax
	movl	$5, 1324(%rax)
	movq	-8(%rbp), %rax
	movl	$5, 1328(%rax)
	movq	-8(%rbp), %rax
	movl	$5, 1332(%rax)
	movq	-8(%rbp), %rax
	movl	$5, 1336(%rax)
	movq	-8(%rbp), %rax
	movl	$5, 1340(%rax)
	movq	-8(%rbp), %rax
	movl	$5, 1344(%rax)
	movq	-8(%rbp), %rax
	movl	$5, 1348(%rax)
	movq	-8(%rbp), %rax
	movl	$5, 1352(%rax)
	movq	-8(%rbp), %rax
	movl	$5, 1356(%rax)
	movq	-8(%rbp), %rax
	movl	$5, 1360(%rax)
	movq	-8(%rbp), %rax
	movl	$5, 1364(%rax)
	movq	-8(%rbp), %rax
	movl	$5, 1368(%rax)
	movq	-8(%rbp), %rax
	movl	$5, 1372(%rax)
	movq	-8(%rbp), %rax
	movl	$5, 1376(%rax)
	movq	-8(%rbp), %rax
	movl	$5, 1380(%rax)
	movq	-8(%rbp), %rax
	movl	$5, 1384(%rax)
	movq	-8(%rbp), %rax
	movl	$5, 1388(%rax)
	movq	-8(%rbp), %rax
	movl	$5, 1392(%rax)
	movq	-8(%rbp), %rax
	movl	$5, 1396(%rax)
	movq	-8(%rbp), %rax
	movl	$5, 1400(%rax)
	movq	-8(%rbp), %rax
	movl	$5, 1404(%rax)
	movq	-8(%rbp), %rax
	movl	$5, 1408(%rax)
	movq	-8(%rbp), %rax
	movl	$5, 1412(%rax)
	movq	-8(%rbp), %rax
	movl	$5, 1416(%rax)
	movq	-8(%rbp), %rax
	movl	$5, 1420(%rax)
	movq	-8(%rbp), %rax
	movl	$5, 1424(%rax)
	movq	-8(%rbp), %rax
	movl	$5, 1428(%rax)
	movq	-8(%rbp), %rax
	movl	$5, 1432(%rax)
	movq	-8(%rbp), %rax
	movl	$5, 1436(%rax)
	movq	-8(%rbp), %rax
	movl	$5, 1440(%rax)
	movq	-8(%rbp), %rax
	movl	$5, 1444(%rax)
	movq	-8(%rbp), %rax
	movl	$5, 1448(%rax)
	movq	-8(%rbp), %rax
	movl	$5, 1452(%rax)
	movq	-8(%rbp), %rax
	movl	$5, 1456(%rax)
	movq	-8(%rbp), %rax
	movl	$5, 1460(%rax)
	movq	-8(%rbp), %rax
	movl	$5, 1464(%rax)
	movq	-8(%rbp), %rax
	movl	$5, 1468(%rax)
	movq	-8(%rbp), %rax
	movl	$5, 1472(%rax)
	movq	-8(%rbp), %rax
	movl	$5, 1476(%rax)
	movq	-8(%rbp), %rax
	movl	$5, 1480(%rax)
	movq	-8(%rbp), %rax
	movl	$5, 1484(%rax)
	movq	-8(%rbp), %rax
	movl	$5, 1488(%rax)
	movq	-8(%rbp), %rax
	movl	$5, 1492(%rax)
	movq	-8(%rbp), %rax
	movl	$5, 1496(%rax)
	movq	-8(%rbp), %rax
	movl	$5, 1500(%rax)
	movq	-8(%rbp), %rax
	movl	$5, 1504(%rax)
	movq	-8(%rbp), %rax
	movl	$5, 1508(%rax)
	movq	-8(%rbp), %rax
	movl	$5, 1512(%rax)
	movq	-8(%rbp), %rax
	movl	$5, 1516(%rax)
	movq	-8(%rbp), %rax
	movl	$5, 1520(%rax)
	movq	-8(%rbp), %rax
	movl	$5, 1524(%rax)
	movq	-8(%rbp), %rax
	movl	$5, 1528(%rax)
	movq	-8(%rbp), %rax
	movl	$5, 1532(%rax)
	movq	-8(%rbp), %rax
	movl	$5, 1536(%rax)
	movq	-8(%rbp), %rax
	movl	$5, 1540(%rax)
	movq	-8(%rbp), %rax
	movl	$5, 1544(%rax)
	movq	-8(%rbp), %rax
	movl	$5, 1548(%rax)
	movq	-8(%rbp), %rax
	movl	$5, 1552(%rax)
	movq	-8(%rbp), %rax
	movl	$5, 1556(%rax)
	movq	-8(%rbp), %rax
	movl	$5, 1560(%rax)
	movq	-8(%rbp), %rax
	movl	$5, 1564(%rax)
	movq	-8(%rbp), %rax
	movl	$5, 1568(%rax)
	movq	-8(%rbp), %rax
	movl	$5, 1572(%rax)
	movq	-8(%rbp), %rax
	movl	$5, 1576(%rax)
	movq	-8(%rbp), %rax
	movl	$5, 1580(%rax)
	movq	-8(%rbp), %rax
	movl	$5, 1584(%rax)
	movq	-8(%rbp), %rax
	movl	$5, 1588(%rax)
	movq	-8(%rbp), %rax
	movl	$5, 1592(%rax)
	movq	-8(%rbp), %rax
	movl	$5, 1596(%rax)
	movq	-8(%rbp), %rax
	movl	$5, 1600(%rax)
	movq	-8(%rbp), %rax
	movl	$5, 1604(%rax)
	movq	-8(%rbp), %rax
	movl	$5, 1608(%rax)
	movq	-8(%rbp), %rax
	movl	$5, 1612(%rax)
	movq	-8(%rbp), %rax
	movl	$5, 1616(%rax)
	movq	-8(%rbp), %rax
	movl	$5, 1620(%rax)
	movq	-8(%rbp), %rax
	movl	$5, 1624(%rax)
	movq	-8(%rbp), %rax
	movl	$5, 1628(%rax)
	movq	-8(%rbp), %rax
	movl	$5, 1632(%rax)
	movq	-8(%rbp), %rax
	movl	$5, 1636(%rax)
	movq	-8(%rbp), %rax
	movl	$5, 1640(%rax)
	movq	-8(%rbp), %rax
	movl	$5, 1644(%rax)
	movq	-8(%rbp), %rax
	movl	$5, 1648(%rax)
	movq	-8(%rbp), %rax
	movl	$5, 1652(%rax)
	movq	-8(%rbp), %rax
	movl	$5, 1656(%rax)
	movq	-8(%rbp), %rax
	movl	$5, 1660(%rax)
	movq	-8(%rbp), %rax
	movl	$5, 1664(%rax)
	movq	-8(%rbp), %rax
	movl	$5, 1668(%rax)
	movq	-8(%rbp), %rax
	movl	$5, 1672(%rax)
	movq	-8(%rbp), %rax
	movl	$5, 1676(%rax)
	movq	-8(%rbp), %rax
	movl	$5, 1680(%rax)
	movq	-8(%rbp), %rax
	movl	$5, 1684(%rax)
	movq	-8(%rbp), %rax
	movl	$5, 1688(%rax)
	movq	-8(%rbp), %rax
	movl	$5, 1692(%rax)
	movq	-8(%rbp), %rax
	movl	$5, 1696(%rax)
	movq	-8(%rbp), %rax
	movl	$5, 1700(%rax)
	movq	-8(%rbp), %rax
	movl	$5, 1704(%rax)
	movq	-8(%rbp), %rax
	movl	$5, 1708(%rax)
	movq	-8(%rbp), %rax
	movl	$5, 1712(%rax)
	movq	-8(%rbp), %rax
	movl	$5, 1716(%rax)
	movq	-8(%rbp), %rax
	movl	$5, 1720(%rax)
	movq	-8(%rbp), %rax
	movl	$5, 1724(%rax)
	movq	-8(%rbp), %rax
	movl	$5, 1728(%rax)
	movq	-8(%rbp), %rax
	movl	$5, 1732(%rax)
	movq	-8(%rbp), %rax
	movl	$5, 1736(%rax)
	movq	-8(%rbp), %rax
	movl	$5, 1740(%rax)
	movq	-8(%rbp), %rax
	movl	$5, 1744(%rax)
	movq	-8(%rbp), %rax
	movl	$5, 1748(%rax)
	movq	-8(%rbp), %rax
	movl	$5, 1752(%rax)
	movq	-8(%rbp), %rax
	movl	$5, 1756(%rax)
	movq	-8(%rbp), %rax
	movl	$5, 1760(%rax)
	movq	-8(%rbp), %rax
	movl	$5, 1764(%rax)
	movq	-8(%rbp), %rax
	movl	$5, 1768(%rax)
	movq	-8(%rbp), %rax
	movl	$5, 1772(%rax)
	movq	-8(%rbp), %rax
	movl	$5, 1776(%rax)
	movq	-8(%rbp), %rax
	movl	$5, 1780(%rax)
	movq	-8(%rbp), %rax
	movl	$5, 1784(%rax)
	movq	-8(%rbp), %rax
	movl	$5, 1788(%rax)
	movq	-8(%rbp), %rax
	movl	$5, 1792(%rax)
	movq	-8(%rbp), %rax
	movl	$5, 1796(%rax)
	movq	-8(%rbp), %rax
	movl	$5, 1800(%rax)
	movq	-8(%rbp), %rax
	movl	$5, 1804(%rax)
	movq	-8(%rbp), %rax
	movl	$5, 1808(%rax)
	movq	-8(%rbp), %rax
	movl	$5, 1812(%rax)
	movq	-8(%rbp), %rax
	movl	$5, 1816(%rax)
	movq	-8(%rbp), %rax
	movl	$5, 1820(%rax)
	movq	-8(%rbp), %rax
	movl	$5, 1824(%rax)
	movq	-8(%rbp), %rax
	movl	$5, 1828(%rax)
	movq	-8(%rbp), %rax
	movl	$5, 1832(%rax)
	movq	-8(%rbp), %rax
	movl	$5, 1836(%rax)
	movq	-8(%rbp), %rax
	movl	$5, 1840(%rax)
	movq	-8(%rbp), %rax
	movl	$5, 1844(%rax)
	movq	-8(%rbp), %rax
	movl	$5, 1848(%rax)
	movq	-8(%rbp), %rax
	movl	$5, 1852(%rax)
	movq	-8(%rbp), %rax
	movl	$5, 1856(%rax)
	movq	-8(%rbp), %rax
	movl	$5, 1860(%rax)
	movq	-8(%rbp), %rax
	movl	$5, 1864(%rax)
	movq	-8(%rbp), %rax
	movl	$5, 1868(%rax)
	movq	-8(%rbp), %rax
	movl	$5, 1872(%rax)
	movq	-8(%rbp), %rax
	movl	$5, 1876(%rax)
	movq	-8(%rbp), %rax
	movl	$5, 1880(%rax)
	movq	-8(%rbp), %rax
	movl	$5, 1884(%rax)
	movq	-8(%rbp), %rax
	movl	$5, 1888(%rax)
	movq	-8(%rbp), %rax
	movl	$5, 1892(%rax)
	movq	-8(%rbp), %rax
	movl	$5, 1896(%rax)
	movq	-8(%rbp), %rax
	movl	$5, 1900(%rax)
	movq	-8(%rbp), %rax
	movl	$5, 1904(%rax)
	movq	-8(%rbp), %rax
	movl	$5, 1908(%rax)
	movq	-8(%rbp), %rax
	movl	$5, 1912(%rax)
	movq	-8(%rbp), %rax
	movl	$5, 1916(%rax)
	movq	-8(%rbp), %rax
	movl	$5, 1920(%rax)
	movq	-8(%rbp), %rax
	movl	$5, 1924(%rax)
	movq	-8(%rbp), %rax
	movl	$5, 1928(%rax)
	movq	-8(%rbp), %rax
	movl	$5, 1932(%rax)
	movq	-8(%rbp), %rax
	movl	$5, 1936(%rax)
	movq	-8(%rbp), %rax
	movl	$5, 1940(%rax)
	movq	-8(%rbp), %rax
	movl	$5, 1944(%rax)
	movq	-8(%rbp), %rax
	movl	$5, 1948(%rax)
	movq	-8(%rbp), %rax
	movl	$5, 1952(%rax)
	movq	-8(%rbp), %rax
	movl	$5, 1956(%rax)
	movq	-8(%rbp), %rax
	movl	$5, 1960(%rax)
	movq	-8(%rbp), %rax
	movl	$5, 1964(%rax)
	movq	-8(%rbp), %rax
	movl	$5, 1968(%rax)
	movq	-8(%rbp), %rax
	movl	$5, 1972(%rax)
	movq	-8(%rbp), %rax
	movl	$5, 1976(%rax)
	movq	-8(%rbp), %rax
	movl	$5, 1980(%rax)
	movq	-8(%rbp), %rax
	movl	$5, 1984(%rax)
	movq	-8(%rbp), %rax
	movl	$5, 1988(%rax)
	movq	-8(%rbp), %rax
	movl	$5, 1992(%rax)
	movq	-8(%rbp), %rax
	movl	$5, 1996(%rax)
	movq	-8(%rbp), %rax
	movl	$5, 2000(%rax)
	movq	-8(%rbp), %rax
	movl	$5, 2004(%rax)
	movq	-8(%rbp), %rax
	movl	$5, 2008(%rax)
	movq	-8(%rbp), %rax
	movl	$5, 2012(%rax)
	movq	-8(%rbp), %rax
	movl	$5, 2016(%rax)
	movq	-8(%rbp), %rax
	movl	$5, 2020(%rax)
	movq	-8(%rbp), %rax
	movl	$5, 2024(%rax)
	movq	-8(%rbp), %rax
	movl	$5, 2028(%rax)
	movq	-8(%rbp), %rax
	movl	$5, 2032(%rax)
	movq	-8(%rbp), %rax
	movl	$5, 2036(%rax)
	movq	-8(%rbp), %rax
	movl	$5, 2040(%rax)
	movq	-8(%rbp), %rax
	movl	$5, 2044(%rax)
	movq	-8(%rbp), %rax
	movl	$5, 2048(%rax)
	movq	-8(%rbp), %rax
	movl	$5, 2052(%rax)
	movq	-8(%rbp), %rax
	movl	$5, 2056(%rax)
	movq	-8(%rbp), %rax
	movl	$5, 2060(%rax)
	movq	-8(%rbp), %rax
	movl	$5, 2064(%rax)
	movq	-8(%rbp), %rax
	movl	$5, 2068(%rax)
	movq	-8(%rbp), %rax
	movl	$5, 2072(%rax)
	movq	-8(%rbp), %rax
	movl	$5, 2076(%rax)
	movq	-8(%rbp), %rax
	movl	$5, 2080(%rax)
	movq	-8(%rbp), %rax
	movl	$5, 2084(%rax)
	movq	-8(%rbp), %rax
	movl	$5, 2088(%rax)
	movq	-8(%rbp), %rax
	movl	$5, 2092(%rax)
	movq	-8(%rbp), %rax
	movl	$5, 2096(%rax)
	movq	-8(%rbp), %rax
	movl	$5, 2100(%rax)
	movq	-8(%rbp), %rax
	movl	$5, 2104(%rax)
	movq	-8(%rbp), %rax
	movl	$5, 2108(%rax)
	movq	-8(%rbp), %rax
	movl	$5, 2112(%rax)
	movq	-8(%rbp), %rax
	movl	$5, 2116(%rax)
	movq	-8(%rbp), %rax
	movl	$5, 2120(%rax)
	movq	-8(%rbp), %rax
	movl	$5, 2124(%rax)
	movq	-8(%rbp), %rax
	movl	$5, 2128(%rax)
	movq	-8(%rbp), %rax
	movl	$5, 2132(%rax)
	movq	-8(%rbp), %rax
	movl	$5, 2136(%rax)
	movq	-8(%rbp), %rax
	movl	$5, 2140(%rax)
	movq	-8(%rbp), %rax
	movl	$5, 2144(%rax)
	movq	-8(%rbp), %rax
	movl	$5, 2148(%rax)
	movq	-8(%rbp), %rax
	movl	$5, 2152(%rax)
	movq	-8(%rbp), %rax
	movl	$5, 2156(%rax)
	movq	-8(%rbp), %rax
	movl	$5, 2160(%rax)
	movq	-8(%rbp), %rax
	movl	$5, 2164(%rax)
	movq	-8(%rbp), %rax
	movl	$5, 2168(%rax)
	movq	-8(%rbp), %rax
	movl	$5, 2172(%rax)
	movq	-8(%rbp), %rax
	movl	$5, 2176(%rax)
	movq	-8(%rbp), %rax
	movl	$5, 2180(%rax)
	movq	-8(%rbp), %rax
	movl	$5, 2184(%rax)
	movq	-8(%rbp), %rax
	movl	$5, 2188(%rax)
	movq	-8(%rbp), %rax
	movl	$5, 2192(%rax)
	movq	-8(%rbp), %rax
	movl	$5, 2196(%rax)
	movq	-8(%rbp), %rax
	movl	$5, 2200(%rax)
	movq	-8(%rbp), %rax
	movl	$5, 2204(%rax)
	movq	-8(%rbp), %rax
	movl	$5, 2208(%rax)
	movq	-8(%rbp), %rax
	movl	$5, 2212(%rax)
	movq	-8(%rbp), %rax
	movl	$5, 2216(%rax)
	movq	-8(%rbp), %rax
	movl	$5, 2220(%rax)
	movq	-8(%rbp), %rax
	movl	$5, 2224(%rax)
	movq	-8(%rbp), %rax
	movl	$5, 2228(%rax)
	movq	-8(%rbp), %rax
	movl	$5, 2232(%rax)
	movq	-8(%rbp), %rax
	movl	$5, 2236(%rax)
	movq	-8(%rbp), %rax
	movl	$5, 2240(%rax)
	movq	-8(%rbp), %rax
	movl	$5, 2244(%rax)
	movq	-8(%rbp), %rax
	movl	$5, 2248(%rax)
	movq	-8(%rbp), %rax
	movl	$5, 2252(%rax)
	movq	-8(%rbp), %rax
	movl	$5, 2256(%rax)
	movq	-8(%rbp), %rax
	movl	$5, 2260(%rax)
	movq	-8(%rbp), %rax
	movl	$5, 2264(%rax)
	movq	-8(%rbp), %rax
	movl	$5, 2268(%rax)
	movq	-8(%rbp), %rax
	movl	$5, 2272(%rax)
	movq	-8(%rbp), %rax
	movl	$5, 2276(%rax)
	movq	-8(%rbp), %rax
	movl	$5, 2280(%rax)
	movq	-8(%rbp), %rax
	movl	$5, 2284(%rax)
	movq	-8(%rbp), %rax
	movl	$5, 2288(%rax)
	movq	-8(%rbp), %rax
	movl	$5, 2292(%rax)
	movq	-8(%rbp), %rax
	movl	$5, 2296(%rax)
	movq	-8(%rbp), %rax
	movl	$5, 2300(%rax)
	movq	-8(%rbp), %rax
	movl	$5, 2304(%rax)
	movq	-8(%rbp), %rax
	movl	$5, 2308(%rax)
	movq	-8(%rbp), %rax
	movl	$5, 2312(%rax)
	movq	-8(%rbp), %rax
	movl	$5, 2316(%rax)
	movq	-8(%rbp), %rax
	movl	$5, 2320(%rax)
	movq	-8(%rbp), %rax
	movl	$5, 2324(%rax)
	movq	-8(%rbp), %rax
	movl	$5, 2328(%rax)
	movq	-8(%rbp), %rax
	movl	$5, 2332(%rax)
	movq	-8(%rbp), %rax
	movl	$5, 2336(%rax)
	movq	-8(%rbp), %rax
	movl	$5, 2340(%rax)
	movq	-8(%rbp), %rax
	movl	$5, 2344(%rax)
	movq	-8(%rbp), %rax
	movl	$5, 2348(%rax)
	movq	-8(%rbp), %rax
	movl	$5, 2352(%rax)
	movq	-8(%rbp), %rax
	movl	$5, 2356(%rax)
	movq	-8(%rbp), %rax
	movl	$5, 2360(%rax)
	movq	-8(%rbp), %rax
	movl	$5, 2364(%rax)
	movq	-8(%rbp), %rax
	movl	$5, 2368(%rax)
	movq	-8(%rbp), %rax
	movl	$5, 2372(%rax)
	movq	-8(%rbp), %rax
	movl	$5, 2376(%rax)
	movq	-8(%rbp), %rax
	movl	$5, 2380(%rax)
	movq	-8(%rbp), %rax
	movl	$5, 2384(%rax)
	movq	-8(%rbp), %rax
	movl	$5, 2388(%rax)
	movq	-8(%rbp), %rax
	movl	$5, 2392(%rax)
	movq	-8(%rbp), %rax
	movl	$5, 2396(%rax)
	movq	-8(%rbp), %rax
	movl	$5, 2400(%rax)
	movq	-8(%rbp), %rax
	movl	$5, 2404(%rax)
	movq	-8(%rbp), %rax
	movl	$5, 2408(%rax)
	movq	-8(%rbp), %rax
	movl	$5, 2412(%rax)
	movq	-8(%rbp), %rax
	movl	$5, 2416(%rax)
	movq	-8(%rbp), %rax
	movl	$5, 2420(%rax)
	movq	-8(%rbp), %rax
	movl	$5, 2424(%rax)
	movq	-8(%rbp), %rax
	movl	$5, 2428(%rax)
	movq	-8(%rbp), %rax
	movl	$5, 2432(%rax)
	movq	-8(%rbp), %rax
	movl	$5, 2436(%rax)
	movq	-8(%rbp), %rax
	movl	$5, 2440(%rax)
	movq	-8(%rbp), %rax
	movl	$5, 2444(%rax)
	movq	-8(%rbp), %rax
	movl	$5, 2448(%rax)
	movq	-8(%rbp), %rax
	movl	$5, 2452(%rax)
	movq	-8(%rbp), %rax
	movl	$5, 2456(%rax)
	movq	-8(%rbp), %rax
	movl	$5, 2460(%rax)
	movq	-8(%rbp), %rax
	movl	$5, 2464(%rax)
	movq	-8(%rbp), %rax
	movl	$5, 2468(%rax)
	movq	-8(%rbp), %rax
	movl	$5, 2472(%rax)
	movq	-8(%rbp), %rax
	movl	$5, 2476(%rax)
	movq	-8(%rbp), %rax
	movl	$5, 2480(%rax)
	movq	-8(%rbp), %rax
	movl	$5, 2484(%rax)
	movq	-8(%rbp), %rax
	movl	$5, 2488(%rax)
	movq	-8(%rbp), %rax
	movl	$5, 2492(%rax)
	movq	-8(%rbp), %rax
	movl	$5, 2496(%rax)
	movq	-8(%rbp), %rax
	movl	$5, 2500(%rax)
	movq	-8(%rbp), %rax
	movl	$5, 2504(%rax)
	movq	-8(%rbp), %rax
	movl	$5, 2508(%rax)
	movq	-8(%rbp), %rax
	movl	$5, 2512(%rax)
	movq	-8(%rbp), %rax
	movl	$5, 2516(%rax)
	movq	-8(%rbp), %rax
	movl	$5, 2520(%rax)
	movq	-8(%rbp), %rax
	movl	$5, 2524(%rax)
	movq	-8(%rbp), %rax
	movl	$5, 2528(%rax)
	movq	-8(%rbp), %rax
	movl	$5, 2532(%rax)
	movq	-8(%rbp), %rax
	movl	$5, 2536(%rax)
	movq	-8(%rbp), %rax
	movl	$5, 2540(%rax)
	movq	-8(%rbp), %rax
	movl	$5, 2544(%rax)
	movq	-8(%rbp), %rax
	movl	$5, 2548(%rax)
	movq	-8(%rbp), %rax
	movl	$5, 2552(%rax)
	movq	-8(%rbp), %rax
	movl	$5, 2556(%rax)
	movq	-8(%rbp), %rax
	movl	$5, 2560(%rax)
	movq	-8(%rbp), %rax
	movl	$5, 2564(%rax)
	movq	-8(%rbp), %rax
	movl	$5, 2568(%rax)
	movq	-8(%rbp), %rax
	movl	$5, 2572(%rax)
	movq	-8(%rbp), %rax
	movl	$5, 2576(%rax)
	movq	-8(%rbp), %rax
	movl	$5, 2580(%rax)
	movq	-8(%rbp), %rax
	movl	$5, 2584(%rax)
	movq	-8(%rbp), %rax
	movl	$5, 2588(%rax)
	movq	-8(%rbp), %rax
	movl	$5, 2592(%rax)
	movq	-8(%rbp), %rax
	movl	$5, 2596(%rax)
	movq	-8(%rbp), %rax
	movl	$5, 2600(%rax)
	movq	-8(%rbp), %rax
	movl	$5, 2604(%rax)
	movq	-8(%rbp), %rax
	movl	$5, 2608(%rax)
	movq	-8(%rbp), %rax
	movl	$5, 2612(%rax)
	movq	-8(%rbp), %rax
	movl	$5, 2616(%rax)
	movq	-8(%rbp), %rax
	movl	$5, 2620(%rax)
	movq	-8(%rbp), %rax
	movl	$5, 2624(%rax)
	movq	-8(%rbp), %rax
	movl	$5, 2628(%rax)
	movq	-8(%rbp), %rax
	movl	$5, 2632(%rax)
	movq	-8(%rbp), %rax
	movl	$5, 2636(%rax)
	movq	-8(%rbp), %rax
	movl	$5, 2640(%rax)
	movq	-8(%rbp), %rax
	movl	$5, 2644(%rax)
	movq	-8(%rbp), %rax
	movl	$5, 2648(%rax)
	movq	-8(%rbp), %rax
	movl	$5, 2652(%rax)
	movq	-8(%rbp), %rax
	movl	$5, 2656(%rax)
	movq	-8(%rbp), %rax
	movl	$5, 2660(%rax)
	movq	-8(%rbp), %rax
	movl	$5, 2664(%rax)
	movq	-8(%rbp), %rax
	movl	$5, 2668(%rax)
	movq	-8(%rbp), %rax
	movl	$5, 2672(%rax)
	movq	-8(%rbp), %rax
	movl	$5, 2676(%rax)
	movq	-8(%rbp), %rax
	movl	$5, 2680(%rax)
	movq	-8(%rbp), %rax
	movl	$5, 2684(%rax)
	movq	-8(%rbp), %rax
	movl	$5, 2688(%rax)
	movq	-8(%rbp), %rax
	movl	$5, 2692(%rax)
	movq	-8(%rbp), %rax
	movl	$5, 2696(%rax)
	movq	-8(%rbp), %rax
	movl	$5, 2700(%rax)
	movq	-8(%rbp), %rax
	movl	$5, 2704(%rax)
	movq	-8(%rbp), %rax
	movl	$5, 2708(%rax)
	movq	-8(%rbp), %rax
	movl	$5, 2712(%rax)
	movq	-8(%rbp), %rax
	movl	$5, 2716(%rax)
	movq	-8(%rbp), %rax
	movl	$5, 2720(%rax)
	movq	-8(%rbp), %rax
	movl	$5, 2724(%rax)
	movq	-8(%rbp), %rax
	movl	$5, 2728(%rax)
	movq	-8(%rbp), %rax
	movl	$5, 2732(%rax)
	movq	-8(%rbp), %rax
	movl	$5, 2736(%rax)
	movq	-8(%rbp), %rax
	movl	$5, 2740(%rax)
	movq	-8(%rbp), %rax
	movl	$5, 2744(%rax)
	movq	-8(%rbp), %rax
	movl	$5, 2748(%rax)
	movq	-8(%rbp), %rax
	movl	$5, 2752(%rax)
	movq	-8(%rbp), %rax
	movl	$5, 2756(%rax)
	movq	-8(%rbp), %rax
	movl	$5, 2760(%rax)
	movq	-8(%rbp), %rax
	movl	$5, 2764(%rax)
	movq	-8(%rbp), %rax
	movl	$5, 2768(%rax)
	movq	-8(%rbp), %rax
	movl	$5, 2772(%rax)
	movq	-8(%rbp), %rax
	movl	$5, 2776(%rax)
	movq	-8(%rbp), %rax
	movl	$5, 2780(%rax)
	movq	-8(%rbp), %rax
	movl	$5, 2784(%rax)
	movq	-8(%rbp), %rax
	movl	$5, 2788(%rax)
	movq	-8(%rbp), %rax
	movl	$5, 2792(%rax)
	movq	-8(%rbp), %rax
	movl	$5, 2796(%rax)
	movq	-8(%rbp), %rax
	movl	$5, 2800(%rax)
	movq	-8(%rbp), %rax
	movl	$5, 2804(%rax)
	movq	-8(%rbp), %rax
	movl	$5, 2808(%rax)
	movq	-8(%rbp), %rax
	movl	$5, 2812(%rax)
	movq	-8(%rbp), %rax
	movl	$5, 2816(%rax)
	movq	-8(%rbp), %rax
	movl	$5, 2820(%rax)
	movq	-8(%rbp), %rax
	movl	$5, 2824(%rax)
	movq	-8(%rbp), %rax
	movl	$5, 2828(%rax)
	movq	-8(%rbp), %rax
	movl	$5, 2832(%rax)
	movq	-8(%rbp), %rax
	movl	$5, 2836(%rax)
	movq	-8(%rbp), %rax
	movl	$5, 2840(%rax)
	movq	-8(%rbp), %rax
	movl	$5, 2844(%rax)
	movq	-8(%rbp), %rax
	movl	$5, 2848(%rax)
	movq	-8(%rbp), %rax
	movl	$5, 2852(%rax)
	movq	-8(%rbp), %rax
	movl	$5, 2856(%rax)
	movq	-8(%rbp), %rax
	movl	$5, 2860(%rax)
	movq	-8(%rbp), %rax
	movl	$5, 2864(%rax)
	movq	-8(%rbp), %rax
	movl	$5, 2868(%rax)
	movq	-8(%rbp), %rax
	movl	$5, 2872(%rax)
	movq	-8(%rbp), %rax
	movl	$5, 2876(%rax)
	movq	-8(%rbp), %rax
	movl	$5, 2880(%rax)
	movq	-8(%rbp), %rax
	movl	$5, 2884(%rax)
	movq	-8(%rbp), %rax
	movl	$5, 2888(%rax)
	movq	-8(%rbp), %rax
	movl	$5, 2892(%rax)
	movq	-8(%rbp), %rax
	movl	$5, 2896(%rax)
	movq	-8(%rbp), %rax
	movl	$5, 2900(%rax)
	movq	-8(%rbp), %rax
	movl	$5, 2904(%rax)
	movq	-8(%rbp), %rax
	movl	$5, 2908(%rax)
	movq	-8(%rbp), %rax
	movl	$5, 2912(%rax)
	movq	-8(%rbp), %rax
	movl	$5, 2916(%rax)
	movq	-8(%rbp), %rax
	movl	$5, 2920(%rax)
	movq	-8(%rbp), %rax
	movl	$5, 2924(%rax)
	movq	-8(%rbp), %rax
	movl	$5, 2928(%rax)
	movq	-8(%rbp), %rax
	movl	$5, 2932(%rax)
	movq	-8(%rbp), %rax
	movl	$5, 2936(%rax)
	movq	-8(%rbp), %rax
	movl	$5, 2940(%rax)
	movq	-8(%rbp), %rax
	movl	$5, 2944(%rax)
	movq	-8(%rbp), %rax
	movl	$5, 2948(%rax)
	movq	-8(%rbp), %rax
	movl	$5, 2952(%rax)
	movq	-8(%rbp), %rax
	movl	$5, 2956(%rax)
	movq	-8(%rbp), %rax
	movl	$5, 2960(%rax)
	movq	-8(%rbp), %rax
	movl	$5, 2964(%rax)
	movq	-8(%rbp), %rax
	movl	$5, 2968(%rax)
	movq	-8(%rbp), %rax
	movl	$5, 2972(%rax)
	movq	-8(%rbp), %rax
	movl	$5, 2976(%rax)
	movq	-8(%rbp), %rax
	movl	$5, 2980(%rax)
	movq	-8(%rbp), %rax
	movl	$5, 2984(%rax)
	movq	-8(%rbp), %rax
	movl	$5, 2988(%rax)
	movq	-8(%rbp), %rax
	movl	$5, 2992(%rax)
	movq	-8(%rbp), %rax
	movl	$5, 2996(%rax)
	movq	-8(%rbp), %rax
	movl	$5, 3000(%rax)
	movq	-8(%rbp), %rax
	movl	$5, 3004(%rax)
	movq	-8(%rbp), %rax
	movl	$5, 3008(%rax)
	movq	-8(%rbp), %rax
	movl	$5, 3012(%rax)
	movq	-8(%rbp), %rax
	movl	$5, 3016(%rax)
	movq	-8(%rbp), %rax
	movl	$5, 3020(%rax)
	movq	-8(%rbp), %rax
	movl	$5, 3024(%rax)
	movq	-8(%rbp), %rax
	movl	$5, 3028(%rax)
	movq	-8(%rbp), %rax
	movl	$5, 3032(%rax)
	movq	-8(%rbp), %rax
	movl	$5, 3036(%rax)
	movq	-8(%rbp), %rax
	movl	$5, 3040(%rax)
	movq	-8(%rbp), %rax
	movl	$5, 3044(%rax)
	movq	-8(%rbp), %rax
	movl	$5, 3048(%rax)
	movq	-8(%rbp), %rax
	movl	$5, 3052(%rax)
	movq	-8(%rbp), %rax
	movl	$5, 3056(%rax)
	movq	-8(%rbp), %rax
	movl	$5, 3060(%rax)
	movq	-8(%rbp), %rax
	movl	$5, 3064(%rax)
	movq	-8(%rbp), %rax
	movl	$5, 3068(%rax)
	movq	-8(%rbp), %rax
	movl	$5, 3072(%rax)
	movq	-8(%rbp), %rax
	movl	$5, 3076(%rax)
	movq	-8(%rbp), %rax
	movl	$5, 3080(%rax)
	movq	-8(%rbp), %rax
	movl	$5, 3084(%rax)
	movq	-8(%rbp), %rax
	movl	$5, 3088(%rax)
	movq	-8(%rbp), %rax
	movl	$5, 3092(%rax)
	movq	-8(%rbp), %rax
	movl	$5, 3096(%rax)
	movq	-8(%rbp), %rax
	movl	$5, 3100(%rax)
	movq	-8(%rbp), %rax
	movl	$5, 3104(%rax)
	movq	-8(%rbp), %rax
	movl	$5, 3108(%rax)
	movq	-8(%rbp), %rax
	movl	$5, 3112(%rax)
	movq	-8(%rbp), %rax
	movl	$5, 3116(%rax)
	movq	-8(%rbp), %rax
	movl	$5, 3120(%rax)
	movq	-8(%rbp), %rax
	movl	$5, 3124(%rax)
	movq	-8(%rbp), %rax
	movl	$5, 3128(%rax)
	movq	-8(%rbp), %rax
	movl	$5, 3132(%rax)
	movq	-8(%rbp), %rax
	movl	$5, 3136(%rax)
	movq	-8(%rbp), %rax
	movl	$5, 3140(%rax)
	movq	-8(%rbp), %rax
	movl	$5, 3144(%rax)
	movq	-8(%rbp), %rax
	movl	$5, 3148(%rax)
	movq	-8(%rbp), %rax
	movl	$5, 3152(%rax)
	movq	-8(%rbp), %rax
	movl	$5, 3156(%rax)
	movq	-8(%rbp), %rax
	movl	$5, 3160(%rax)
	movq	-8(%rbp), %rax
	movl	$5, 3164(%rax)
	movq	-8(%rbp), %rax
	movl	$5, 3168(%rax)
	movq	-8(%rbp), %rax
	movl	$5, 3172(%rax)
	movq	-8(%rbp), %rax
	movl	$5, 3176(%rax)
	movq	-8(%rbp), %rax
	movl	$5, 3180(%rax)
	movq	-8(%rbp), %rax
	movl	$5, 3184(%rax)
	movq	-8(%rbp), %rax
	movl	$5, 3188(%rax)
	movq	-8(%rbp), %rax
	movl	$5, 3192(%rax)
	movq	-8(%rbp), %rax
	movl	$5, 3196(%rax)
	movq	-8(%rbp), %rax
	movl	$5, 3200(%rax)
	movq	-8(%rbp), %rax
	movl	$5, 3204(%rax)
	movq	-8(%rbp), %rax
	movl	$5, 3208(%rax)
	movq	-8(%rbp), %rax
	movl	$5, 3212(%rax)
	movq	-8(%rbp), %rax
	movl	$5, 3216(%rax)
	movq	-8(%rbp), %rax
	movl	$5, 3220(%rax)
	movq	-8(%rbp), %rax
	movl	$5, 3224(%rax)
	movq	-8(%rbp), %rax
	movl	$5, 3228(%rax)
	movq	-8(%rbp), %rax
	movl	$5, 3232(%rax)
	movq	-8(%rbp), %rax
	movl	$5, 3236(%rax)
	movq	-8(%rbp), %rax
	movl	$5, 3240(%rax)
	movq	-8(%rbp), %rax
	movl	$5, 3244(%rax)
	movq	-8(%rbp), %rax
	movl	$5, 3248(%rax)
	movq	-8(%rbp), %rax
	movl	$5, 3252(%rax)
	movq	-8(%rbp), %rax
	movl	$5, 3256(%rax)
	movq	-8(%rbp), %rax
	movl	$5, 3260(%rax)
	movq	-8(%rbp), %rax
	movl	$5, 3264(%rax)
	movq	-8(%rbp), %rax
	movl	$5, 3268(%rax)
	movq	-8(%rbp), %rax
	movl	$5, 3272(%rax)
	movq	-8(%rbp), %rax
	movl	$5, 3276(%rax)
	movq	-8(%rbp), %rax
	movl	$5, 3280(%rax)
	movq	-8(%rbp), %rax
	movl	$5, 3284(%rax)
	movq	-8(%rbp), %rax
	movl	$5, 3288(%rax)
	movq	-8(%rbp), %rax
	movl	$5, 3292(%rax)
	movq	-8(%rbp), %rax
	movl	$5, 3296(%rax)
	movq	-8(%rbp), %rax
	movl	$5, 3300(%rax)
	movq	-8(%rbp), %rax
	movl	$5, 3304(%rax)
	movq	-8(%rbp), %rax
	movl	$5, 3308(%rax)
	movq	-8(%rbp), %rax
	movl	$5, 3312(%rax)
	movq	-8(%rbp), %rax
	movl	$5, 3316(%rax)
	movq	-8(%rbp), %rax
	movl	$5, 3320(%rax)
	movq	-8(%rbp), %rax
	movl	$5, 3324(%rax)
	movq	-8(%rbp), %rax
	movl	$5, 3328(%rax)
	movq	-8(%rbp), %rax
	movl	$5, 3332(%rax)
	movq	-8(%rbp), %rax
	movl	$5, 3336(%rax)
	movq	-8(%rbp), %rax
	movl	$5, 3340(%rax)
	movq	-8(%rbp), %rax
	movl	$5, 3344(%rax)
	movq	-8(%rbp), %rax
	movl	$5, 3348(%rax)
	movq	-8(%rbp), %rax
	movl	$5, 3352(%rax)
	movq	-8(%rbp), %rax
	movl	$5, 3356(%rax)
	movq	-8(%rbp), %rax
	movl	$5, 3360(%rax)
	movq	-8(%rbp), %rax
	movl	$5, 3364(%rax)
	movq	-8(%rbp), %rax
	movl	$5, 3368(%rax)
	movq	-8(%rbp), %rax
	movl	$5, 3372(%rax)
	movq	-8(%rbp), %rax
	movl	$5, 3376(%rax)
	movq	-8(%rbp), %rax
	movl	$5, 3380(%rax)
	movq	-8(%rbp), %rax
	movl	$5, 3384(%rax)
	movq	-8(%rbp), %rax
	movl	$5, 3388(%rax)
	movq	-8(%rbp), %rax
	movl	$5, 3392(%rax)
	movq	-8(%rbp), %rax
	movl	$5, 3396(%rax)
	movq	-8(%rbp), %rax
	movl	$5, 3400(%rax)
	movq	-8(%rbp), %rax
	movl	$5, 3404(%rax)
	movq	-8(%rbp), %rax
	movl	$5, 3408(%rax)
	movq	-8(%rbp), %rax
	movl	$5, 3412(%rax)
	movq	-8(%rbp), %rax
	movl	$5, 3416(%rax)
	movq	-8(%rbp), %rax
	movl	$5, 3420(%rax)
	movq	-8(%rbp), %rax
	movl	$5, 3424(%rax)
	movq	-8(%rbp), %rax
	movl	$5, 3428(%rax)
	movq	-8(%rbp), %rax
	movl	$5, 3432(%rax)
	movq	-8(%rbp), %rax
	movl	$5, 3436(%rax)
	movq	-8(%rbp), %rax
	movl	$5, 3440(%rax)
	movq	-8(%rbp), %rax
	movl	$5, 3444(%rax)
	movq	-8(%rbp), %rax
	movl	$5, 3448(%rax)
	movq	-8(%rbp), %rax
	movl	$5, 3452(%rax)
	movq	-8(%rbp), %rax
	movl	$5, 3456(%rax)
	movq	-8(%rbp), %rax
	movl	$5, 3460(%rax)
	movq	-8(%rbp), %rax
	movl	$5, 3464(%rax)
	movq	-8(%rbp), %rax
	movl	$5, 3468(%rax)
	movq	-8(%rbp), %rax
	movl	$5, 3472(%rax)
	movq	-8(%rbp), %rax
	movl	$5, 3476(%rax)
	movq	-8(%rbp), %rax
	movl	$5, 3480(%rax)
	movq	-8(%rbp), %rax
	movl	$5, 3484(%rax)
	movq	-8(%rbp), %rax
	movl	$5, 3488(%rax)
	movq	-8(%rbp), %rax
	movl	$5, 3492(%rax)
	movq	-8(%rbp), %rax
	movl	$5, 3496(%rax)
	movq	-8(%rbp), %rax
	movl	$5, 3500(%rax)
	movq	-8(%rbp), %rax
	movl	$5, 3504(%rax)
	movq	-8(%rbp), %rax
	movl	$5, 3508(%rax)
	movq	-8(%rbp), %rax
	movl	$5, 3512(%rax)
	movq	-8(%rbp), %rax
	movl	$5, 3516(%rax)
	movq	-8(%rbp), %rax
	movl	$5, 3520(%rax)
	movq	-8(%rbp), %rax
	movl	$5, 3524(%rax)
	movq	-8(%rbp), %rax
	movl	$5, 3528(%rax)
	movq	-8(%rbp), %rax
	movl	$5, 3532(%rax)
	movq	-8(%rbp), %rax
	movl	$5, 3536(%rax)
	movq	-8(%rbp), %rax
	movl	$5, 3540(%rax)
	movq	-8(%rbp), %rax
	movl	$5, 3544(%rax)
	movq	-8(%rbp), %rax
	movl	$5, 3548(%rax)
	movq	-8(%rbp), %rax
	movl	$5, 3552(%rax)
	movq	-8(%rbp), %rax
	movl	$5, 3556(%rax)
	movq	-8(%rbp), %rax
	movl	$5, 3560(%rax)
	movq	-8(%rbp), %rax
	movl	$5, 3564(%rax)
	movq	-8(%rbp), %rax
	movl	$5, 3568(%rax)
	movq	-8(%rbp), %rax
	movl	$5, 3572(%rax)
	movq	-8(%rbp), %rax
	movl	$5, 3576(%rax)
	movq	-8(%rbp), %rax
	movl	$5, 3580(%rax)
	movq	-8(%rbp), %rax
	movl	$5, 3584(%rax)
	movq	-8(%rbp), %rax
	movl	$5, 3588(%rax)
	movq	-8(%rbp), %rax
	movl	$5, 3592(%rax)
	movq	-8(%rbp), %rax
	movl	$5, 3596(%rax)
	movq	-8(%rbp), %rax
	movl	$5, 3600(%rax)
	movq	-8(%rbp), %rax
	movl	$5, 3604(%rax)
	movq	-8(%rbp), %rax
	movl	$5, 3608(%rax)
	movq	-8(%rbp), %rax
	movl	$5, 3612(%rax)
	movq	-8(%rbp), %rax
	movl	$5, 3616(%rax)
	movq	-8(%rbp), %rax
	movl	$5, 3620(%rax)
	movq	-8(%rbp), %rax
	movl	$5, 3624(%rax)
	movq	-8(%rbp), %rax
	movl	$5, 3628(%rax)
	movq	-8(%rbp), %rax
	movl	$5, 3632(%rax)
	movq	-8(%rbp), %rax
	movl	$5, 3636(%rax)
	movq	-8(%rbp), %rax
	movl	$5, 3640(%rax)
	movq	-8(%rbp), %rax
	movl	$5, 3644(%rax)
	movq	-8(%rbp), %rax
	movl	$5, 3648(%rax)
	movq	-8(%rbp), %rax
	movl	$5, 3652(%rax)
	movq	-8(%rbp), %rax
	movl	$5, 3656(%rax)
	movq	-8(%rbp), %rax
	movl	$5, 3660(%rax)
	movq	-8(%rbp), %rax
	movl	$5, 3664(%rax)
	movq	-8(%rbp), %rax
	movl	$5, 3668(%rax)
	movq	-8(%rbp), %rax
	movl	$5, 3672(%rax)
	movq	-8(%rbp), %rax
	movl	$5, 3676(%rax)
	movq	-8(%rbp), %rax
	movl	$5, 3680(%rax)
	movq	-8(%rbp), %rax
	movl	$5, 3684(%rax)
	movq	-8(%rbp), %rax
	movl	$5, 3688(%rax)
	movq	-8(%rbp), %rax
	movl	$5, 3692(%rax)
	movq	-8(%rbp), %rax
	movl	$5, 3696(%rax)
	movq	-8(%rbp), %rax
	movl	$5, 3700(%rax)
	movq	-8(%rbp), %rax
	movl	$5, 3704(%rax)
	movq	-8(%rbp), %rax
	movl	$5, 3708(%rax)
	movq	-8(%rbp), %rax
	movl	$5, 3712(%rax)
	movq	-8(%rbp), %rax
	movl	$5, 3716(%rax)
	movq	-8(%rbp), %rax
	movl	$5, 3720(%rax)
	movq	-8(%rbp), %rax
	movl	$5, 3724(%rax)
	movq	-8(%rbp), %rax
	movl	$5, 3728(%rax)
	movq	-8(%rbp), %rax
	movl	$5, 3732(%rax)
	movq	-8(%rbp), %rax
	movl	$5, 3736(%rax)
	movq	-8(%rbp), %rax
	movl	$5, 3740(%rax)
	movq	-8(%rbp), %rax
	movl	$5, 3744(%rax)
	movq	-8(%rbp), %rax
	movl	$5, 3748(%rax)
	movq	-8(%rbp), %rax
	movl	$5, 3752(%rax)
	movq	-8(%rbp), %rax
	movl	$5, 3756(%rax)
	movq	-8(%rbp), %rax
	movl	$5, 3760(%rax)
	movq	-8(%rbp), %rax
	movl	$5, 3764(%rax)
	movq	-8(%rbp), %rax
	movl	$5, 3768(%rax)
	movq	-8(%rbp), %rax
	movl	$5, 3772(%rax)
	movq	-8(%rbp), %rax
	movl	$5, 3776(%rax)
	movq	-8(%rbp), %rax
	movl	$5, 3780(%rax)
	movq	-8(%rbp), %rax
	movl	$5, 3784(%rax)
	movq	-8(%rbp), %rax
	movl	$5, 3788(%rax)
	movq	-8(%rbp), %rax
	movl	$5, 3792(%rax)
	movq	-8(%rbp), %rax
	movl	$5, 3796(%rax)
	movq	-8(%rbp), %rax
	movl	$5, 3800(%rax)
	movq	-8(%rbp), %rax
	movl	$5, 3804(%rax)
	movq	-8(%rbp), %rax
	movl	$5, 3808(%rax)
	movq	-8(%rbp), %rax
	movl	$5, 3812(%rax)
	movq	-8(%rbp), %rax
	movl	$5, 3816(%rax)
	movq	-8(%rbp), %rax
	movl	$5, 3820(%rax)
	movq	-8(%rbp), %rax
	movl	$5, 3824(%rax)
	movq	-8(%rbp), %rax
	movl	$5, 3828(%rax)
	movq	-8(%rbp), %rax
	movl	$5, 3832(%rax)
	movq	-8(%rbp), %rax
	movl	$5, 3836(%rax)
	movq	-8(%rbp), %rax
	movl	$5, 3840(%rax)
	movq	-8(%rbp), %rax
	movl	$5, 3844(%rax)
	movq	-8(%rbp), %rax
	movl	$5, 3848(%rax)
	movq	-8(%rbp), %rax
	movl	$5, 3852(%rax)
	movq	-8(%rbp), %rax
	movl	$5, 3856(%rax)
	movq	-8(%rbp), %rax
	movl	$5, 3860(%rax)
	movq	-8(%rbp), %rax
	movl	$5, 3864(%rax)
	movq	-8(%rbp), %rax
	movl	$5, 3868(%rax)
	movq	-8(%rbp), %rax
	movl	$5, 3872(%rax)
	movq	-8(%rbp), %rax
	movl	$5, 3876(%rax)
	movq	-8(%rbp), %rax
	movl	$5, 3880(%rax)
	movq	-8(%rbp), %rax
	movl	$5, 3884(%rax)
	movq	-8(%rbp), %rax
	movl	$5, 3888(%rax)
	movq	-8(%rbp), %rax
	movl	$5, 3892(%rax)
	movq	-8(%rbp), %rax
	movl	$5, 3896(%rax)
	movq	-8(%rbp), %rax
	movl	$5, 3900(%rax)
	movq	-8(%rbp), %rax
	movl	$5, 3904(%rax)
	movq	-8(%rbp), %rax
	movl	$5, 3908(%rax)
	movq	-8(%rbp), %rax
	movl	$5, 3912(%rax)
	movq	-8(%rbp), %rax
	movl	$5, 3916(%rax)
	movq	-8(%rbp), %rax
	movl	$5, 3920(%rax)
	movq	-8(%rbp), %rax
	movl	$5, 3924(%rax)
	movq	-8(%rbp), %rax
	movl	$5, 3928(%rax)
	movq	-8(%rbp), %rax
	movl	$5, 3932(%rax)
	movq	-8(%rbp), %rax
	movl	$5, 3936(%rax)
	movq	-8(%rbp), %rax
	movl	$5, 3940(%rax)
	movq	-8(%rbp), %rax
	movl	$5, 3944(%rax)
	movq	-8(%rbp), %rax
	movl	$5, 3948(%rax)
	movq	-8(%rbp), %rax
	movl	$5, 3952(%rax)
	movq	-8(%rbp), %rax
	movl	$5, 3956(%rax)
	movq	-8(%rbp), %rax
	movl	$5, 3960(%rax)
	movq	-8(%rbp), %rax
	movl	$5, 3964(%rax)
	movq	-8(%rbp), %rax
	movl	$5, 3968(%rax)
	movq	-8(%rbp), %rax
	movl	$5, 3972(%rax)
	movq	-8(%rbp), %rax
	movl	$5, 3976(%rax)
	movq	-8(%rbp), %rax
	movl	$5, 3980(%rax)
	movq	-8(%rbp), %rax
	movl	$5, 3984(%rax)
	movq	-8(%rbp), %rax
	movl	$5, 3988(%rax)
	movq	-8(%rbp), %rax
	movl	$5, 3992(%rax)
	movq	-8(%rbp), %rax
	movl	$5, 3996(%rax)
	callq	_mach_absolute_time
	leaq	L_.str1(%rip), %rdi
	movq	%rax, -24(%rbp)
	movq	-24(%rbp), %rax
	subq	-16(%rbp), %rax
	movq	%rax, %rsi
	movb	$0, %al
	callq	_printf
	movq	-8(%rbp), %rsi
	movq	%rsi, %rdi
	movl	%eax, -28(%rbp)         ## 4-byte Spill
	callq	_free
	addq	$32, %rsp
	popq	%rbp
	retq
	.cfi_endproc

	.globl	_main
	.align	4, 0x90
_main:                                  ## @main
	.cfi_startproc
## BB#0:
	pushq	%rbp
Ltmp9:
	.cfi_def_cfa_offset 16
Ltmp10:
	.cfi_offset %rbp, -16
	movq	%rsp, %rbp
Ltmp11:
	.cfi_def_cfa_register %rbp
	subq	$16, %rsp
	movl	$0, -4(%rbp)
	movl	%edi, -8(%rbp)
	movq	%rsi, -16(%rbp)
	callq	_helper
	callq	_write_helper
	callq	_add_overhead
	xorl	%eax, %eax
	addq	$16, %rsp
	popq	%rbp
	retq
	.cfi_endproc

	.section	__TEXT,__cstring,cstring_literals
L_.str:                                 ## @.str
	.asciz	"%d, %llu\n"

L_.str1:                                ## @.str1
	.asciz	"%llu\n"

	.comm	_debug_on,4,2           ## @debug_on

.subsections_via_symbols
